ARM GAS  C:\Users\Joshua\AppData\Local\Temp\cchJYxqO.s 			page 1


   1              		.cpu cortex-m4
   2              		.arch armv7e-m
   3              		.fpu fpv4-sp-d16
   4              		.eabi_attribute 27, 1
   5              		.eabi_attribute 28, 1
   6              		.eabi_attribute 20, 1
   7              		.eabi_attribute 21, 1
   8              		.eabi_attribute 23, 3
   9              		.eabi_attribute 24, 1
  10              		.eabi_attribute 25, 1
  11              		.eabi_attribute 26, 1
  12              		.eabi_attribute 30, 1
  13              		.eabi_attribute 34, 1
  14              		.eabi_attribute 18, 4
  15              		.file	"main.c"
  16              		.text
  17              	.Ltext0:
  18              		.cfi_sections	.debug_frame
  19              		.file 1 "Core/Src/main.c"
  20              		.section	.text.WaitForLow,"ax",%progbits
  21              		.align	1
  22              		.global	WaitForLow
  23              		.syntax unified
  24              		.thumb
  25              		.thumb_func
  27              	WaitForLow:
  28              	.LFB953:
   1:Core/Src/main.c **** /* USER CODE BEGIN Header */
   2:Core/Src/main.c **** /**
   3:Core/Src/main.c ****   ******************************************************************************
   4:Core/Src/main.c ****   * @file           : main.c
   5:Core/Src/main.c ****   * @brief          : Main program body
   6:Core/Src/main.c ****   ******************************************************************************
   7:Core/Src/main.c ****   * @attention
   8:Core/Src/main.c ****   *
   9:Core/Src/main.c ****   * Copyright (c) 2023 STMicroelectronics.
  10:Core/Src/main.c ****   * All rights reserved.
  11:Core/Src/main.c ****   *
  12:Core/Src/main.c ****   * This software is licensed under terms that can be found in the LICENSE file
  13:Core/Src/main.c ****   * in the root directory of this software component.
  14:Core/Src/main.c ****   * If no LICENSE file comes with this software, it is provided AS-IS.
  15:Core/Src/main.c ****   *
  16:Core/Src/main.c ****   ******************************************************************************
  17:Core/Src/main.c ****   */
  18:Core/Src/main.c **** /* USER CODE END Header */
  19:Core/Src/main.c **** /* Includes ------------------------------------------------------------------*/
  20:Core/Src/main.c **** #include "main.h"
  21:Core/Src/main.c **** #include "memorymap.h"
  22:Core/Src/main.c **** #include "tim.h"
  23:Core/Src/main.c **** #include "usart.h"
  24:Core/Src/main.c **** #include "usb.h"
  25:Core/Src/main.c **** #include "gpio.h"
  26:Core/Src/main.c **** 
  27:Core/Src/main.c **** /* Private includes ----------------------------------------------------------*/
  28:Core/Src/main.c **** /* USER CODE BEGIN Includes */
  29:Core/Src/main.c **** #include "lcd1602.h"
  30:Core/Src/main.c **** #include <stdio.h>
ARM GAS  C:\Users\Joshua\AppData\Local\Temp\cchJYxqO.s 			page 2


  31:Core/Src/main.c **** #include <string.h>
  32:Core/Src/main.c **** 
  33:Core/Src/main.c **** /* USER CODE END Includes */
  34:Core/Src/main.c **** 
  35:Core/Src/main.c **** /* Private typedef -----------------------------------------------------------*/
  36:Core/Src/main.c **** /* USER CODE BEGIN PTD */
  37:Core/Src/main.c **** 
  38:Core/Src/main.c **** /* USER CODE END PTD */
  39:Core/Src/main.c **** 
  40:Core/Src/main.c **** /* Private define ------------------------------------------------------------*/
  41:Core/Src/main.c **** /* USER CODE BEGIN PD */
  42:Core/Src/main.c **** 
  43:Core/Src/main.c **** /* USER CODE END PD */
  44:Core/Src/main.c **** 
  45:Core/Src/main.c **** /* Private macro -------------------------------------------------------------*/
  46:Core/Src/main.c **** /* USER CODE BEGIN PM */
  47:Core/Src/main.c **** 
  48:Core/Src/main.c **** /* USER CODE END PM */
  49:Core/Src/main.c **** 
  50:Core/Src/main.c **** /* Private variables ---------------------------------------------------------*/
  51:Core/Src/main.c **** 
  52:Core/Src/main.c **** /* USER CODE BEGIN PV */
  53:Core/Src/main.c **** uint32_t pMillis, cMillis;
  54:Core/Src/main.c **** 
  55:Core/Src/main.c **** /* USER CODE END PV */
  56:Core/Src/main.c **** 
  57:Core/Src/main.c **** /* Private function prototypes -----------------------------------------------*/
  58:Core/Src/main.c **** void SystemClock_Config(void);
  59:Core/Src/main.c **** void PeriphCommonClock_Config(void);
  60:Core/Src/main.c **** /* USER CODE BEGIN PFP */
  61:Core/Src/main.c **** 
  62:Core/Src/main.c **** /* USER CODE END PFP */
  63:Core/Src/main.c **** 
  64:Core/Src/main.c **** /* Private user code ---------------------------------------------------------*/
  65:Core/Src/main.c **** /* USER CODE BEGIN 0 */
  66:Core/Src/main.c **** GPIO_InitTypeDef myGPIO_InitStruct = {0};
  67:Core/Src/main.c **** uint8_t humInt, humDec, tempCInt, tempCDec;
  68:Core/Src/main.c **** float tempF = 0;
  69:Core/Src/main.c **** uint32_t previousTimeInms = 0;
  70:Core/Src/main.c **** uint32_t currentTimeInms = 0;
  71:Core/Src/main.c **** uint32_t previousReadTime = 0;
  72:Core/Src/main.c **** uint8_t keyPressed = 0;
  73:Core/Src/main.c **** uint8_t setTemp = 70;
  74:Core/Src/main.c **** uint8_t settingTemp = 0;
  75:Core/Src/main.c **** uint8_t fanSpinning = 1;
  76:Core/Src/main.c **** 
  77:Core/Src/main.c **** // Wait for low signal
  78:Core/Src/main.c **** // Time out at 255 ticks
  79:Core/Src/main.c **** uint8_t WaitForLow()
  80:Core/Src/main.c **** {
  29              		.loc 1 80 1 view -0
  30              		.cfi_startproc
  31              		@ args = 0, pretend = 0, frame = 0
  32              		@ frame_needed = 0, uses_anonymous_args = 0
  33 0000 10B5     		push	{r4, lr}
  34              		.cfi_def_cfa_offset 8
  35              		.cfi_offset 4, -8
ARM GAS  C:\Users\Joshua\AppData\Local\Temp\cchJYxqO.s 			page 3


  36              		.cfi_offset 14, -4
  81:Core/Src/main.c ****   uint32_t start = HAL_GetTick();
  37              		.loc 1 81 3 view .LVU1
  38              		.loc 1 81 20 is_stmt 0 view .LVU2
  39 0002 FFF7FEFF 		bl	HAL_GetTick
  40              	.LVL0:
  41 0006 0446     		mov	r4, r0
  42              	.LVL1:
  82:Core/Src/main.c ****   while((HAL_GPIO_ReadPin (GPIOB, GPIO_PIN_4)))
  43              		.loc 1 82 3 is_stmt 1 view .LVU3
  44              	.L2:
  45              		.loc 1 82 9 view .LVU4
  46              		.loc 1 82 10 is_stmt 0 view .LVU5
  47 0008 1021     		movs	r1, #16
  48 000a 0648     		ldr	r0, .L8
  49 000c FFF7FEFF 		bl	HAL_GPIO_ReadPin
  50              	.LVL2:
  51              		.loc 1 82 9 view .LVU6
  52 0010 30B1     		cbz	r0, .L7
  83:Core/Src/main.c ****   {
  84:Core/Src/main.c ****     if (HAL_GetTick() - start >= UINT8_MAX){
  53              		.loc 1 84 5 is_stmt 1 view .LVU7
  54              		.loc 1 84 9 is_stmt 0 view .LVU8
  55 0012 FFF7FEFF 		bl	HAL_GetTick
  56              	.LVL3:
  57              		.loc 1 84 23 view .LVU9
  58 0016 001B     		subs	r0, r0, r4
  59              		.loc 1 84 8 view .LVU10
  60 0018 FE28     		cmp	r0, #254
  61 001a F5D9     		bls	.L2
  85:Core/Src/main.c ****       return 0;
  62              		.loc 1 85 14 view .LVU11
  63 001c 0020     		movs	r0, #0
  64 001e 00E0     		b	.L3
  65              	.L7:
  86:Core/Src/main.c ****     }
  87:Core/Src/main.c ****   }
  88:Core/Src/main.c ****   return 1;
  66              		.loc 1 88 10 view .LVU12
  67 0020 0120     		movs	r0, #1
  68              	.L3:
  89:Core/Src/main.c **** }
  69              		.loc 1 89 1 view .LVU13
  70 0022 10BD     		pop	{r4, pc}
  71              	.LVL4:
  72              	.L9:
  73              		.loc 1 89 1 view .LVU14
  74              		.align	2
  75              	.L8:
  76 0024 00040048 		.word	1207960576
  77              		.cfi_endproc
  78              	.LFE953:
  80              		.section	.text.WaitForHigh,"ax",%progbits
  81              		.align	1
  82              		.global	WaitForHigh
  83              		.syntax unified
  84              		.thumb
ARM GAS  C:\Users\Joshua\AppData\Local\Temp\cchJYxqO.s 			page 4


  85              		.thumb_func
  87              	WaitForHigh:
  88              	.LFB954:
  90:Core/Src/main.c **** 
  91:Core/Src/main.c **** // Wait for high signal
  92:Core/Src/main.c **** // Time out at 255 ticks
  93:Core/Src/main.c **** uint8_t WaitForHigh()
  94:Core/Src/main.c **** {
  89              		.loc 1 94 1 is_stmt 1 view -0
  90              		.cfi_startproc
  91              		@ args = 0, pretend = 0, frame = 0
  92              		@ frame_needed = 0, uses_anonymous_args = 0
  93 0000 38B5     		push	{r3, r4, r5, lr}
  94              		.cfi_def_cfa_offset 16
  95              		.cfi_offset 3, -16
  96              		.cfi_offset 4, -12
  97              		.cfi_offset 5, -8
  98              		.cfi_offset 14, -4
  95:Core/Src/main.c ****   uint32_t start = HAL_GetTick();
  99              		.loc 1 95 3 view .LVU16
 100              		.loc 1 95 20 is_stmt 0 view .LVU17
 101 0002 FFF7FEFF 		bl	HAL_GetTick
 102              	.LVL5:
 103 0006 0446     		mov	r4, r0
 104              	.LVL6:
  96:Core/Src/main.c ****   while(!(HAL_GPIO_ReadPin (GPIOB, GPIO_PIN_4)))
 105              		.loc 1 96 3 is_stmt 1 view .LVU18
 106              	.L11:
 107              		.loc 1 96 9 view .LVU19
 108              		.loc 1 96 11 is_stmt 0 view .LVU20
 109 0008 1021     		movs	r1, #16
 110 000a 0748     		ldr	r0, .L16
 111 000c FFF7FEFF 		bl	HAL_GPIO_ReadPin
 112              	.LVL7:
 113              		.loc 1 96 9 view .LVU21
 114 0010 0546     		mov	r5, r0
 115 0012 28B9     		cbnz	r0, .L15
  97:Core/Src/main.c ****   {
  98:Core/Src/main.c ****     if (HAL_GetTick() - start >= UINT8_MAX){
 116              		.loc 1 98 5 is_stmt 1 view .LVU22
 117              		.loc 1 98 9 is_stmt 0 view .LVU23
 118 0014 FFF7FEFF 		bl	HAL_GetTick
 119              	.LVL8:
 120              		.loc 1 98 23 view .LVU24
 121 0018 001B     		subs	r0, r0, r4
 122              		.loc 1 98 8 view .LVU25
 123 001a FE28     		cmp	r0, #254
 124 001c F4D9     		bls	.L11
 125 001e 00E0     		b	.L12
 126              	.L15:
  99:Core/Src/main.c ****       return 0;
 100:Core/Src/main.c ****     }
 101:Core/Src/main.c ****   }
 102:Core/Src/main.c ****   return 1;
 127              		.loc 1 102 10 view .LVU26
 128 0020 0125     		movs	r5, #1
 129              	.L12:
ARM GAS  C:\Users\Joshua\AppData\Local\Temp\cchJYxqO.s 			page 5


 103:Core/Src/main.c **** }
 130              		.loc 1 103 1 view .LVU27
 131 0022 2846     		mov	r0, r5
 132 0024 38BD     		pop	{r3, r4, r5, pc}
 133              	.LVL9:
 134              	.L17:
 135              		.loc 1 103 1 view .LVU28
 136 0026 00BF     		.align	2
 137              	.L16:
 138 0028 00040048 		.word	1207960576
 139              		.cfi_endproc
 140              	.LFE954:
 142              		.section	.text.DHT11_SendStartSignal,"ax",%progbits
 143              		.align	1
 144              		.global	DHT11_SendStartSignal
 145              		.syntax unified
 146              		.thumb
 147              		.thumb_func
 149              	DHT11_SendStartSignal:
 150              	.LFB955:
 104:Core/Src/main.c **** 
 105:Core/Src/main.c **** // Send start signal to dht11
 106:Core/Src/main.c **** // - set pin low for 20ms
 107:Core/Src/main.c **** // - set pin high for 40us
 108:Core/Src/main.c **** // - wait for dht11 to pull pin low
 109:Core/Src/main.c **** // - wait for dht11 to pull pin high
 110:Core/Src/main.c **** uint8_t DHT11_SendStartSignal(void)
 111:Core/Src/main.c **** {
 151              		.loc 1 111 1 is_stmt 1 view -0
 152              		.cfi_startproc
 153              		@ args = 0, pretend = 0, frame = 24
 154              		@ frame_needed = 0, uses_anonymous_args = 0
 155 0000 F0B5     		push	{r4, r5, r6, r7, lr}
 156              		.cfi_def_cfa_offset 20
 157              		.cfi_offset 4, -20
 158              		.cfi_offset 5, -16
 159              		.cfi_offset 6, -12
 160              		.cfi_offset 7, -8
 161              		.cfi_offset 14, -4
 162 0002 87B0     		sub	sp, sp, #28
 163              		.cfi_def_cfa_offset 48
 112:Core/Src/main.c ****   uint8_t response = 0;
 164              		.loc 1 112 3 view .LVU30
 165              	.LVL10:
 113:Core/Src/main.c ****   GPIO_InitTypeDef GPIO_InitStructPrivate = {0};
 166              		.loc 1 113 3 view .LVU31
 167              		.loc 1 113 20 is_stmt 0 view .LVU32
 168 0004 0024     		movs	r4, #0
 169 0006 0194     		str	r4, [sp, #4]
 170 0008 0294     		str	r4, [sp, #8]
 171 000a 0394     		str	r4, [sp, #12]
 172 000c 0494     		str	r4, [sp, #16]
 173 000e 0594     		str	r4, [sp, #20]
 114:Core/Src/main.c ****   GPIO_InitStructPrivate.Pin = GPIO_PIN_4;
 174              		.loc 1 114 3 is_stmt 1 view .LVU33
 175              		.loc 1 114 30 is_stmt 0 view .LVU34
 176 0010 1027     		movs	r7, #16
ARM GAS  C:\Users\Joshua\AppData\Local\Temp\cchJYxqO.s 			page 6


 177 0012 0197     		str	r7, [sp, #4]
 115:Core/Src/main.c ****   GPIO_InitStructPrivate.Mode = GPIO_MODE_OUTPUT_PP;
 178              		.loc 1 115 3 is_stmt 1 view .LVU35
 179              		.loc 1 115 31 is_stmt 0 view .LVU36
 180 0014 0126     		movs	r6, #1
 181 0016 0296     		str	r6, [sp, #8]
 116:Core/Src/main.c ****   GPIO_InitStructPrivate.Speed = GPIO_SPEED_FREQ_LOW;
 182              		.loc 1 116 3 is_stmt 1 view .LVU37
 117:Core/Src/main.c ****   GPIO_InitStructPrivate.Pull = GPIO_NOPULL;
 183              		.loc 1 117 3 view .LVU38
 118:Core/Src/main.c ****   HAL_GPIO_Init(GPIOB, &GPIO_InitStructPrivate); // set the pin as output
 184              		.loc 1 118 3 view .LVU39
 185 0018 104D     		ldr	r5, .L20
 186 001a 01A9     		add	r1, sp, #4
 187 001c 2846     		mov	r0, r5
 188 001e FFF7FEFF 		bl	HAL_GPIO_Init
 189              	.LVL11:
 119:Core/Src/main.c ****   
 120:Core/Src/main.c ****   HAL_GPIO_WritePin(GPIOB, GPIO_PIN_4, 0);   // pull the pin low
 190              		.loc 1 120 3 view .LVU40
 191 0022 2246     		mov	r2, r4
 192 0024 3946     		mov	r1, r7
 193 0026 2846     		mov	r0, r5
 194 0028 FFF7FEFF 		bl	HAL_GPIO_WritePin
 195              	.LVL12:
 121:Core/Src/main.c ****   HAL_Delay(20);   // wait for 20ms
 196              		.loc 1 121 3 view .LVU41
 197 002c 1420     		movs	r0, #20
 198 002e FFF7FEFF 		bl	HAL_Delay
 199              	.LVL13:
 122:Core/Src/main.c ****   HAL_GPIO_WritePin(GPIOB, GPIO_PIN_4, 1);   // pull the pin high
 200              		.loc 1 122 3 view .LVU42
 201 0032 3246     		mov	r2, r6
 202 0034 3946     		mov	r1, r7
 203 0036 2846     		mov	r0, r5
 204 0038 FFF7FEFF 		bl	HAL_GPIO_WritePin
 205              	.LVL14:
 123:Core/Src/main.c ****   Delay_us (40);   // wait for 40us
 206              		.loc 1 123 3 view .LVU43
 207 003c 2820     		movs	r0, #40
 208 003e FFF7FEFF 		bl	Delay_us
 209              	.LVL15:
 124:Core/Src/main.c **** 
 125:Core/Src/main.c ****   GPIO_InitStructPrivate.Mode = GPIO_MODE_INPUT;
 210              		.loc 1 125 3 view .LVU44
 211              		.loc 1 125 31 is_stmt 0 view .LVU45
 212 0042 0294     		str	r4, [sp, #8]
 126:Core/Src/main.c ****   GPIO_InitStructPrivate.Pull = GPIO_PULLUP;
 213              		.loc 1 126 3 is_stmt 1 view .LVU46
 214              		.loc 1 126 31 is_stmt 0 view .LVU47
 215 0044 0396     		str	r6, [sp, #12]
 127:Core/Src/main.c ****   HAL_GPIO_Init(GPIOB, &GPIO_InitStructPrivate); // set the pin as input
 216              		.loc 1 127 3 is_stmt 1 view .LVU48
 217 0046 01A9     		add	r1, sp, #4
 218 0048 2846     		mov	r0, r5
 219 004a FFF7FEFF 		bl	HAL_GPIO_Init
 220              	.LVL16:
ARM GAS  C:\Users\Joshua\AppData\Local\Temp\cchJYxqO.s 			page 7


 128:Core/Src/main.c ****   response = WaitForLow();
 221              		.loc 1 128 3 view .LVU49
 222              		.loc 1 128 14 is_stmt 0 view .LVU50
 223 004e FFF7FEFF 		bl	WaitForLow
 224              	.LVL17:
 129:Core/Src/main.c ****   response = WaitForHigh();
 225              		.loc 1 129 3 is_stmt 1 view .LVU51
 226              		.loc 1 129 14 is_stmt 0 view .LVU52
 227 0052 FFF7FEFF 		bl	WaitForHigh
 228              	.LVL18:
 130:Core/Src/main.c **** 
 131:Core/Src/main.c ****   return response;
 229              		.loc 1 131 3 is_stmt 1 view .LVU53
 132:Core/Src/main.c **** }
 230              		.loc 1 132 1 is_stmt 0 view .LVU54
 231 0056 07B0     		add	sp, sp, #28
 232              		.cfi_def_cfa_offset 20
 233              		@ sp needed
 234 0058 F0BD     		pop	{r4, r5, r6, r7, pc}
 235              	.L21:
 236 005a 00BF     		.align	2
 237              	.L20:
 238 005c 00040048 		.word	1207960576
 239              		.cfi_endproc
 240              	.LFE955:
 242              		.section	.text.DHT11_ReadByte,"ax",%progbits
 243              		.align	1
 244              		.global	DHT11_ReadByte
 245              		.syntax unified
 246              		.thumb
 247              		.thumb_func
 249              	DHT11_ReadByte:
 250              	.LFB956:
 133:Core/Src/main.c **** 
 134:Core/Src/main.c **** // Get one byte from DHT11
 135:Core/Src/main.c **** uint8_t DHT11_ReadByte()
 136:Core/Src/main.c **** {
 251              		.loc 1 136 1 is_stmt 1 view -0
 252              		.cfi_startproc
 253              		@ args = 0, pretend = 0, frame = 0
 254              		@ frame_needed = 0, uses_anonymous_args = 0
 255 0000 38B5     		push	{r3, r4, r5, lr}
 256              		.cfi_def_cfa_offset 16
 257              		.cfi_offset 3, -16
 258              		.cfi_offset 4, -12
 259              		.cfi_offset 5, -8
 260              		.cfi_offset 14, -4
 137:Core/Src/main.c ****   uint8_t a, b = 0;
 261              		.loc 1 137 3 view .LVU56
 262              	.LVL19:
 138:Core/Src/main.c ****   for (a = 0; a < 8; a++)
 263              		.loc 1 138 3 view .LVU57
 137:Core/Src/main.c ****   uint8_t a, b = 0;
 264              		.loc 1 137 14 is_stmt 0 view .LVU58
 265 0002 0025     		movs	r5, #0
 266              		.loc 1 138 10 view .LVU59
 267 0004 2C46     		mov	r4, r5
ARM GAS  C:\Users\Joshua\AppData\Local\Temp\cchJYxqO.s 			page 8


 268              		.loc 1 138 3 view .LVU60
 269 0006 09E0     		b	.L23
 270              	.LVL20:
 271              	.L24:
 139:Core/Src/main.c ****   {
 140:Core/Src/main.c ****     WaitForHigh();
 141:Core/Src/main.c ****     Delay_us(40);   // wait for 40 us (threshold is ~28 us)
 142:Core/Src/main.c ****     if (!(HAL_GPIO_ReadPin (GPIOB, GPIO_PIN_4))) // Bit is 0 if pin is low
 143:Core/Src/main.c ****       b&= ~(1<<(7-a));
 144:Core/Src/main.c ****     else // Bit is 1 if pin is still high
 145:Core/Src/main.c ****       b|= (1<<(7-a));
 272              		.loc 1 145 7 is_stmt 1 view .LVU61
 273              		.loc 1 145 17 is_stmt 0 view .LVU62
 274 0008 C4F10703 		rsb	r3, r4, #7
 275              		.loc 1 145 13 view .LVU63
 276 000c 0120     		movs	r0, #1
 277 000e 9840     		lsls	r0, r0, r3
 278              		.loc 1 145 8 view .LVU64
 279 0010 2843     		orrs	r0, r0, r5
 280 0012 C5B2     		uxtb	r5, r0
 281              	.LVL21:
 282              	.L25:
 146:Core/Src/main.c ****     WaitForLow();
 283              		.loc 1 146 5 is_stmt 1 discriminator 2 view .LVU65
 284 0014 FFF7FEFF 		bl	WaitForLow
 285              	.LVL22:
 138:Core/Src/main.c ****   for (a = 0; a < 8; a++)
 286              		.loc 1 138 23 discriminator 2 view .LVU66
 287 0018 0134     		adds	r4, r4, #1
 288              	.LVL23:
 138:Core/Src/main.c ****   for (a = 0; a < 8; a++)
 289              		.loc 1 138 23 is_stmt 0 discriminator 2 view .LVU67
 290 001a E4B2     		uxtb	r4, r4
 291              	.LVL24:
 292              	.L23:
 138:Core/Src/main.c ****   for (a = 0; a < 8; a++)
 293              		.loc 1 138 17 is_stmt 1 discriminator 1 view .LVU68
 294 001c 072C     		cmp	r4, #7
 295 001e 12D8     		bhi	.L28
 140:Core/Src/main.c ****     Delay_us(40);   // wait for 40 us (threshold is ~28 us)
 296              		.loc 1 140 5 view .LVU69
 297 0020 FFF7FEFF 		bl	WaitForHigh
 298              	.LVL25:
 141:Core/Src/main.c ****     if (!(HAL_GPIO_ReadPin (GPIOB, GPIO_PIN_4))) // Bit is 0 if pin is low
 299              		.loc 1 141 5 view .LVU70
 300 0024 2820     		movs	r0, #40
 301 0026 FFF7FEFF 		bl	Delay_us
 302              	.LVL26:
 142:Core/Src/main.c ****       b&= ~(1<<(7-a));
 303              		.loc 1 142 5 view .LVU71
 142:Core/Src/main.c ****       b&= ~(1<<(7-a));
 304              		.loc 1 142 11 is_stmt 0 view .LVU72
 305 002a 1021     		movs	r1, #16
 306 002c 0748     		ldr	r0, .L29
 307 002e FFF7FEFF 		bl	HAL_GPIO_ReadPin
 308              	.LVL27:
 142:Core/Src/main.c ****       b&= ~(1<<(7-a));
ARM GAS  C:\Users\Joshua\AppData\Local\Temp\cchJYxqO.s 			page 9


 309              		.loc 1 142 8 view .LVU73
 310 0032 0028     		cmp	r0, #0
 311 0034 E8D1     		bne	.L24
 143:Core/Src/main.c ****     else // Bit is 1 if pin is still high
 312              		.loc 1 143 7 is_stmt 1 view .LVU74
 143:Core/Src/main.c ****     else // Bit is 1 if pin is still high
 313              		.loc 1 143 18 is_stmt 0 view .LVU75
 314 0036 C4F10702 		rsb	r2, r4, #7
 143:Core/Src/main.c ****     else // Bit is 1 if pin is still high
 315              		.loc 1 143 14 view .LVU76
 316 003a 0123     		movs	r3, #1
 317 003c 9340     		lsls	r3, r3, r2
 143:Core/Src/main.c ****     else // Bit is 1 if pin is still high
 318              		.loc 1 143 8 view .LVU77
 319 003e DB43     		mvns	r3, r3
 320 0040 5BB2     		sxtb	r3, r3
 321 0042 1D40     		ands	r5, r5, r3
 322              	.LVL28:
 143:Core/Src/main.c ****     else // Bit is 1 if pin is still high
 323              		.loc 1 143 8 view .LVU78
 324 0044 E6E7     		b	.L25
 325              	.L28:
 147:Core/Src/main.c ****   }
 148:Core/Src/main.c ****   return b;
 326              		.loc 1 148 3 is_stmt 1 view .LVU79
 149:Core/Src/main.c **** }
 327              		.loc 1 149 1 is_stmt 0 view .LVU80
 328 0046 2846     		mov	r0, r5
 329 0048 38BD     		pop	{r3, r4, r5, pc}
 330              	.LVL29:
 331              	.L30:
 332              		.loc 1 149 1 view .LVU81
 333 004a 00BF     		.align	2
 334              	.L29:
 335 004c 00040048 		.word	1207960576
 336              		.cfi_endproc
 337              	.LFE956:
 339              		.section	.text.NumButtonPress,"ax",%progbits
 340              		.align	1
 341              		.global	NumButtonPress
 342              		.syntax unified
 343              		.thumb
 344              		.thumb_func
 346              	NumButtonPress:
 347              	.LVL30:
 348              	.LFB960:
 150:Core/Src/main.c **** /* USER CODE END 0 */
 151:Core/Src/main.c **** 
 152:Core/Src/main.c **** /**
 153:Core/Src/main.c ****   * @brief  The application entry point.
 154:Core/Src/main.c ****   * @retval int
 155:Core/Src/main.c ****   */
 156:Core/Src/main.c **** int main(void)
 157:Core/Src/main.c **** {
 158:Core/Src/main.c ****   /* USER CODE BEGIN 1 */
 159:Core/Src/main.c **** 
 160:Core/Src/main.c ****   /* USER CODE END 1 */
ARM GAS  C:\Users\Joshua\AppData\Local\Temp\cchJYxqO.s 			page 10


 161:Core/Src/main.c **** 
 162:Core/Src/main.c ****   /* MCU Configuration--------------------------------------------------------*/
 163:Core/Src/main.c **** 
 164:Core/Src/main.c ****   /* Reset of all peripherals, Initializes the Flash interface and the Systick. */
 165:Core/Src/main.c ****   HAL_Init();
 166:Core/Src/main.c **** 
 167:Core/Src/main.c ****   /* USER CODE BEGIN Init */
 168:Core/Src/main.c ****   char msg[32];
 169:Core/Src/main.c **** 
 170:Core/Src/main.c ****   /* USER CODE END Init */
 171:Core/Src/main.c **** 
 172:Core/Src/main.c ****   /* Configure the system clock */
 173:Core/Src/main.c ****   SystemClock_Config();
 174:Core/Src/main.c **** 
 175:Core/Src/main.c **** /* Configure the peripherals common clocks */
 176:Core/Src/main.c ****   PeriphCommonClock_Config();
 177:Core/Src/main.c **** 
 178:Core/Src/main.c ****   /* USER CODE BEGIN SysInit */
 179:Core/Src/main.c **** 
 180:Core/Src/main.c ****   /* USER CODE END SysInit */
 181:Core/Src/main.c **** 
 182:Core/Src/main.c ****   /* Initialize all configured peripherals */
 183:Core/Src/main.c ****   MX_GPIO_Init();
 184:Core/Src/main.c ****   MX_MEMORYMAP_Init();
 185:Core/Src/main.c ****   MX_TIM16_Init();
 186:Core/Src/main.c ****   MX_USART1_UART_Init();
 187:Core/Src/main.c ****   MX_USB_PCD_Init();
 188:Core/Src/main.c ****   MX_TIM2_Init();
 189:Core/Src/main.c ****   /* USER CODE BEGIN 2 */
 190:Core/Src/main.c ****   // Init LCD
 191:Core/Src/main.c ****   HAL_TIM_Base_Start(&htim2);
 192:Core/Src/main.c ****   HAL_TIM_PWM_Start(&htim16, TIM_CHANNEL_1);
 193:Core/Src/main.c ****   LCD_Init();
 194:Core/Src/main.c ****   LCD_Cls();
 195:Core/Src/main.c ****   HAL_GPIO_WritePin(GPIOB, GPIO_PIN_9, 0);
 196:Core/Src/main.c ****   HAL_GPIO_WritePin(GPIOC, GPIO_PIN_5, GPIO_PIN_SET);
 197:Core/Src/main.c ****   TIM16->CCR1 = 255; // Spin up fan
 198:Core/Src/main.c **** 
 199:Core/Src/main.c ****   /* USER CODE END 2 */
 200:Core/Src/main.c **** 
 201:Core/Src/main.c ****   /* Infinite loop */
 202:Core/Src/main.c ****   /* USER CODE BEGIN WHILE */
 203:Core/Src/main.c ****   while (1)
 204:Core/Src/main.c ****   {
 205:Core/Src/main.c ****     currentTimeInms = HAL_GetTick();
 206:Core/Src/main.c ****     // Only attempt to read 2 seconds after last successful read
 207:Core/Src/main.c ****     if ((currentTimeInms - previousReadTime > 2500) && DHT11_SendStartSignal())
 208:Core/Src/main.c ****     {
 209:Core/Src/main.c ****       char buffer[16] = { 0 };
 210:Core/Src/main.c ****       LCD_GotoXY(0, 0);
 211:Core/Src/main.c **** 
 212:Core/Src/main.c ****       humInt = DHT11_ReadByte(); // Relative humidity integral
 213:Core/Src/main.c ****       humDec = DHT11_ReadByte(); // Relative humidity decimal
 214:Core/Src/main.c ****       tempCInt = DHT11_ReadByte(); // Celsius integral
 215:Core/Src/main.c ****       tempCDec = DHT11_ReadByte(); // Celsius decimal
 216:Core/Src/main.c ****       tempF = ((float)tempCInt + (float)(tempCDec/10.0)) * 9/5 + 32;
 217:Core/Src/main.c **** 
ARM GAS  C:\Users\Joshua\AppData\Local\Temp\cchJYxqO.s 			page 11


 218:Core/Src/main.c ****       // Set fan speed based on set temp and current temp
 219:Core/Src/main.c ****       if (!settingTemp)
 220:Core/Src/main.c ****       {
 221:Core/Src/main.c ****         if (tempF > setTemp)
 222:Core/Src/main.c ****         {
 223:Core/Src/main.c ****           if (!fanSpinning)
 224:Core/Src/main.c ****           {
 225:Core/Src/main.c ****             // Spin up fan
 226:Core/Src/main.c ****             TIM16->CCR1 = 255;
 227:Core/Src/main.c ****             HAL_Delay(100);
 228:Core/Src/main.c ****           }
 229:Core/Src/main.c ****           // Set speed (max speed at diff of 5F, min speed ~20%)
 230:Core/Src/main.c ****           TIM16->CCR1 = (round(tempF) - setTemp) / (float)5.0 * 51 + 195;
 231:Core/Src/main.c ****         }
 232:Core/Src/main.c ****         else
 233:Core/Src/main.c ****         {
 234:Core/Src/main.c ****           fanSpinning = 0;
 235:Core/Src/main.c ****           TIM16->CCR1 = 0;
 236:Core/Src/main.c ****         }
 237:Core/Src/main.c ****       }
 238:Core/Src/main.c **** 
 239:Core/Src/main.c ****       // Print first line
 240:Core/Src/main.c ****       sprintf(buffer,"%d.%d %%  %d F  ", humInt, humDec, (int)round(tempF));
 241:Core/Src/main.c ****       LCD_Print(buffer);
 242:Core/Src/main.c **** 
 243:Core/Src/main.c ****       // Print second line
 244:Core/Src/main.c ****       LCD_GotoXY(0, 1);
 245:Core/Src/main.c ****       if (setTemp == 0)
 246:Core/Src/main.c ****       {
 247:Core/Src/main.c ****         sprintf(buffer, "Set Temp:  F   ");
 248:Core/Src/main.c ****       }
 249:Core/Src/main.c ****       else
 250:Core/Src/main.c ****       {
 251:Core/Src/main.c ****         sprintf(buffer, "Set Temp: %d F ", setTemp);
 252:Core/Src/main.c ****       }
 253:Core/Src/main.c ****       LCD_Print(buffer);
 254:Core/Src/main.c **** 
 255:Core/Src/main.c ****       previousReadTime = HAL_GetTick();
 256:Core/Src/main.c ****     }
 257:Core/Src/main.c **** 
 258:Core/Src/main.c ****     if (settingTemp)
 259:Core/Src/main.c ****     {
 260:Core/Src/main.c ****       char buffer[16] = { 0 };
 261:Core/Src/main.c ****       sprintf(buffer, "Set Temp: %d F ", setTemp);
 262:Core/Src/main.c ****     }
 263:Core/Src/main.c ****     /* USER CODE END WHILE */
 264:Core/Src/main.c **** 
 265:Core/Src/main.c ****     /* USER CODE BEGIN 3 */
 266:Core/Src/main.c ****   }
 267:Core/Src/main.c ****   /* USER CODE END 3 */
 268:Core/Src/main.c **** }
 269:Core/Src/main.c **** 
 270:Core/Src/main.c **** /**
 271:Core/Src/main.c ****   * @brief System Clock Configuration
 272:Core/Src/main.c ****   * @retval None
 273:Core/Src/main.c ****   */
 274:Core/Src/main.c **** void SystemClock_Config(void)
ARM GAS  C:\Users\Joshua\AppData\Local\Temp\cchJYxqO.s 			page 12


 275:Core/Src/main.c **** {
 276:Core/Src/main.c ****   RCC_OscInitTypeDef RCC_OscInitStruct = {0};
 277:Core/Src/main.c ****   RCC_ClkInitTypeDef RCC_ClkInitStruct = {0};
 278:Core/Src/main.c **** 
 279:Core/Src/main.c ****   /** Macro to configure the PLL multiplication factor
 280:Core/Src/main.c ****   */
 281:Core/Src/main.c ****   __HAL_RCC_PLL_PLLM_CONFIG(RCC_PLLM_DIV1);
 282:Core/Src/main.c **** 
 283:Core/Src/main.c ****   /** Macro to configure the PLL clock source
 284:Core/Src/main.c ****   */
 285:Core/Src/main.c ****   __HAL_RCC_PLL_PLLSOURCE_CONFIG(RCC_PLLSOURCE_MSI);
 286:Core/Src/main.c **** 
 287:Core/Src/main.c ****   /** Configure LSE Drive Capability
 288:Core/Src/main.c ****   */
 289:Core/Src/main.c ****   HAL_PWR_EnableBkUpAccess();
 290:Core/Src/main.c ****   __HAL_RCC_LSEDRIVE_CONFIG(RCC_LSEDRIVE_LOW);
 291:Core/Src/main.c **** 
 292:Core/Src/main.c ****   /** Configure the main internal regulator output voltage
 293:Core/Src/main.c ****   */
 294:Core/Src/main.c ****   __HAL_PWR_VOLTAGESCALING_CONFIG(PWR_REGULATOR_VOLTAGE_SCALE1);
 295:Core/Src/main.c **** 
 296:Core/Src/main.c ****   /** Initializes the RCC Oscillators according to the specified parameters
 297:Core/Src/main.c ****   * in the RCC_OscInitTypeDef structure.
 298:Core/Src/main.c ****   */
 299:Core/Src/main.c ****   RCC_OscInitStruct.OscillatorType = RCC_OSCILLATORTYPE_HSI|RCC_OSCILLATORTYPE_HSE
 300:Core/Src/main.c ****                               |RCC_OSCILLATORTYPE_LSE|RCC_OSCILLATORTYPE_MSI;
 301:Core/Src/main.c ****   RCC_OscInitStruct.HSEState = RCC_HSE_ON;
 302:Core/Src/main.c ****   RCC_OscInitStruct.LSEState = RCC_LSE_ON;
 303:Core/Src/main.c ****   RCC_OscInitStruct.HSIState = RCC_HSI_ON;
 304:Core/Src/main.c ****   RCC_OscInitStruct.MSIState = RCC_MSI_ON;
 305:Core/Src/main.c ****   RCC_OscInitStruct.HSICalibrationValue = RCC_HSICALIBRATION_DEFAULT;
 306:Core/Src/main.c ****   RCC_OscInitStruct.MSICalibrationValue = RCC_MSICALIBRATION_DEFAULT;
 307:Core/Src/main.c ****   RCC_OscInitStruct.MSIClockRange = RCC_MSIRANGE_6;
 308:Core/Src/main.c ****   RCC_OscInitStruct.PLL.PLLState = RCC_PLL_NONE;
 309:Core/Src/main.c ****   if (HAL_RCC_OscConfig(&RCC_OscInitStruct) != HAL_OK)
 310:Core/Src/main.c ****   {
 311:Core/Src/main.c ****     Error_Handler();
 312:Core/Src/main.c ****   }
 313:Core/Src/main.c **** 
 314:Core/Src/main.c ****   /** Configure the SYSCLKSource, HCLK, PCLK1 and PCLK2 clocks dividers
 315:Core/Src/main.c ****   */
 316:Core/Src/main.c ****   RCC_ClkInitStruct.ClockType = RCC_CLOCKTYPE_HCLK4|RCC_CLOCKTYPE_HCLK2
 317:Core/Src/main.c ****                               |RCC_CLOCKTYPE_HCLK|RCC_CLOCKTYPE_SYSCLK
 318:Core/Src/main.c ****                               |RCC_CLOCKTYPE_PCLK1|RCC_CLOCKTYPE_PCLK2;
 319:Core/Src/main.c ****   RCC_ClkInitStruct.SYSCLKSource = RCC_SYSCLKSOURCE_HSE;
 320:Core/Src/main.c ****   RCC_ClkInitStruct.AHBCLKDivider = RCC_SYSCLK_DIV1;
 321:Core/Src/main.c ****   RCC_ClkInitStruct.APB1CLKDivider = RCC_HCLK_DIV1;
 322:Core/Src/main.c ****   RCC_ClkInitStruct.APB2CLKDivider = RCC_HCLK_DIV1;
 323:Core/Src/main.c ****   RCC_ClkInitStruct.AHBCLK2Divider = RCC_SYSCLK_DIV1;
 324:Core/Src/main.c ****   RCC_ClkInitStruct.AHBCLK4Divider = RCC_SYSCLK_DIV1;
 325:Core/Src/main.c **** 
 326:Core/Src/main.c ****   if (HAL_RCC_ClockConfig(&RCC_ClkInitStruct, FLASH_LATENCY_1) != HAL_OK)
 327:Core/Src/main.c ****   {
 328:Core/Src/main.c ****     Error_Handler();
 329:Core/Src/main.c ****   }
 330:Core/Src/main.c **** 
 331:Core/Src/main.c ****   /** Enable MSI Auto calibration
ARM GAS  C:\Users\Joshua\AppData\Local\Temp\cchJYxqO.s 			page 13


 332:Core/Src/main.c ****   */
 333:Core/Src/main.c ****   HAL_RCCEx_EnableMSIPLLMode();
 334:Core/Src/main.c **** }
 335:Core/Src/main.c **** 
 336:Core/Src/main.c **** /**
 337:Core/Src/main.c ****   * @brief Peripherals Common Clock Configuration
 338:Core/Src/main.c ****   * @retval None
 339:Core/Src/main.c ****   */
 340:Core/Src/main.c **** void PeriphCommonClock_Config(void)
 341:Core/Src/main.c **** {
 342:Core/Src/main.c ****   RCC_PeriphCLKInitTypeDef PeriphClkInitStruct = {0};
 343:Core/Src/main.c **** 
 344:Core/Src/main.c ****   /** Initializes the peripherals clock
 345:Core/Src/main.c ****   */
 346:Core/Src/main.c ****   PeriphClkInitStruct.PeriphClockSelection = RCC_PERIPHCLK_SMPS;
 347:Core/Src/main.c ****   PeriphClkInitStruct.SmpsClockSelection = RCC_SMPSCLKSOURCE_HSI;
 348:Core/Src/main.c ****   PeriphClkInitStruct.SmpsDivSelection = RCC_SMPSCLKDIV_RANGE0;
 349:Core/Src/main.c **** 
 350:Core/Src/main.c ****   if (HAL_RCCEx_PeriphCLKConfig(&PeriphClkInitStruct) != HAL_OK)
 351:Core/Src/main.c ****   {
 352:Core/Src/main.c ****     Error_Handler();
 353:Core/Src/main.c ****   }
 354:Core/Src/main.c ****   /* USER CODE BEGIN Smps */
 355:Core/Src/main.c **** 
 356:Core/Src/main.c ****   /* USER CODE END Smps */
 357:Core/Src/main.c **** }
 358:Core/Src/main.c **** 
 359:Core/Src/main.c **** /* USER CODE BEGIN 4 */
 360:Core/Src/main.c **** void NumButtonPress(uint8_t num)
 361:Core/Src/main.c **** {
 349              		.loc 1 361 1 is_stmt 1 view -0
 350              		.cfi_startproc
 351              		@ args = 0, pretend = 0, frame = 0
 352              		@ frame_needed = 0, uses_anonymous_args = 0
 353              		@ link register save eliminated.
 362:Core/Src/main.c ****   if (settingTemp)
 354              		.loc 1 362 3 view .LVU83
 355              		.loc 1 362 7 is_stmt 0 view .LVU84
 356 0000 094B     		ldr	r3, .L34
 357 0002 1B78     		ldrb	r3, [r3]	@ zero_extendqisi2
 358              		.loc 1 362 6 view .LVU85
 359 0004 73B1     		cbz	r3, .L31
 363:Core/Src/main.c ****   {
 364:Core/Src/main.c ****     if (setTemp == 0)
 360              		.loc 1 364 5 is_stmt 1 view .LVU86
 361              		.loc 1 364 17 is_stmt 0 view .LVU87
 362 0006 094B     		ldr	r3, .L34+4
 363 0008 1B78     		ldrb	r3, [r3]	@ zero_extendqisi2
 364              		.loc 1 364 8 view .LVU88
 365 000a 13B9     		cbnz	r3, .L33
 365:Core/Src/main.c ****     {
 366:Core/Src/main.c ****       setTemp = num;
 366              		.loc 1 366 7 is_stmt 1 view .LVU89
 367              		.loc 1 366 15 is_stmt 0 view .LVU90
 368 000c 074B     		ldr	r3, .L34+4
 369 000e 1870     		strb	r0, [r3]
 370 0010 7047     		bx	lr
ARM GAS  C:\Users\Joshua\AppData\Local\Temp\cchJYxqO.s 			page 14


 371              	.L33:
 367:Core/Src/main.c ****     }
 368:Core/Src/main.c ****     else
 369:Core/Src/main.c ****     {
 370:Core/Src/main.c ****       setTemp = setTemp * 10 + num;
 372              		.loc 1 370 7 is_stmt 1 view .LVU91
 373              		.loc 1 370 30 is_stmt 0 view .LVU92
 374 0012 03EB8303 		add	r3, r3, r3, lsl #2
 375 0016 00EB4300 		add	r0, r0, r3, lsl #1
 376              	.LVL31:
 377              		.loc 1 370 15 view .LVU93
 378 001a 044B     		ldr	r3, .L34+4
 379 001c 1870     		strb	r0, [r3]
 371:Core/Src/main.c ****       settingTemp = 0;
 380              		.loc 1 371 7 is_stmt 1 view .LVU94
 381              		.loc 1 371 19 is_stmt 0 view .LVU95
 382 001e 024B     		ldr	r3, .L34
 383 0020 0022     		movs	r2, #0
 384 0022 1A70     		strb	r2, [r3]
 385              	.L31:
 372:Core/Src/main.c ****     }
 373:Core/Src/main.c ****   }
 374:Core/Src/main.c **** }
 386              		.loc 1 374 1 view .LVU96
 387 0024 7047     		bx	lr
 388              	.L35:
 389 0026 00BF     		.align	2
 390              	.L34:
 391 0028 00000000 		.word	settingTemp
 392 002c 00000000 		.word	setTemp
 393              		.cfi_endproc
 394              	.LFE960:
 396              		.section	.text.HAL_GPIO_EXTI_Callback,"ax",%progbits
 397              		.align	1
 398              		.global	HAL_GPIO_EXTI_Callback
 399              		.syntax unified
 400              		.thumb
 401              		.thumb_func
 403              	HAL_GPIO_EXTI_Callback:
 404              	.LVL32:
 405              	.LFB961:
 375:Core/Src/main.c **** 
 376:Core/Src/main.c **** void HAL_GPIO_EXTI_Callback(uint16_t GPIO_Pin)
 377:Core/Src/main.c **** {
 406              		.loc 1 377 1 is_stmt 1 view -0
 407              		.cfi_startproc
 408              		@ args = 0, pretend = 0, frame = 0
 409              		@ frame_needed = 0, uses_anonymous_args = 0
 410              		.loc 1 377 1 is_stmt 0 view .LVU98
 411 0000 38B5     		push	{r3, r4, r5, lr}
 412              		.cfi_def_cfa_offset 16
 413              		.cfi_offset 3, -16
 414              		.cfi_offset 4, -12
 415              		.cfi_offset 5, -8
 416              		.cfi_offset 14, -4
 417 0002 0446     		mov	r4, r0
 378:Core/Src/main.c ****   currentTimeInms = HAL_GetTick();
ARM GAS  C:\Users\Joshua\AppData\Local\Temp\cchJYxqO.s 			page 15


 418              		.loc 1 378 3 is_stmt 1 view .LVU99
 419              		.loc 1 378 21 is_stmt 0 view .LVU100
 420 0004 FFF7FEFF 		bl	HAL_GetTick
 421              	.LVL33:
 422              		.loc 1 378 19 view .LVU101
 423 0008 D04B     		ldr	r3, .L72
 424 000a 1860     		str	r0, [r3]
 379:Core/Src/main.c ****   if (currentTimeInms - previousTimeInms > 500) {
 425              		.loc 1 379 3 is_stmt 1 view .LVU102
 426              		.loc 1 379 23 is_stmt 0 view .LVU103
 427 000c D04B     		ldr	r3, .L72+4
 428 000e 1B68     		ldr	r3, [r3]
 429 0010 C01A     		subs	r0, r0, r3
 430              		.loc 1 379 6 view .LVU104
 431 0012 B0F5FA7F 		cmp	r0, #500
 432 0016 00D8     		bhi	.L55
 433              	.L36:
 380:Core/Src/main.c ****     myGPIO_InitStruct.Pin = Key_C1_Pin|Key_C2_Pin|Key_C3_Pin|Key_C4_Pin;
 381:Core/Src/main.c ****     myGPIO_InitStruct.Mode = GPIO_MODE_INPUT;
 382:Core/Src/main.c ****     myGPIO_InitStruct.Pull = GPIO_PULLDOWN;
 383:Core/Src/main.c ****     myGPIO_InitStruct.Speed = GPIO_SPEED_FREQ_LOW;
 384:Core/Src/main.c ****     HAL_GPIO_Init(GPIOA, &myGPIO_InitStruct);
 385:Core/Src/main.c **** 
 386:Core/Src/main.c ****     HAL_GPIO_WritePin(Key_R1_GPIO_Port, Key_R1_Pin, 1);
 387:Core/Src/main.c ****     HAL_GPIO_WritePin(Key_R2_GPIO_Port, Key_R2_Pin, 0);
 388:Core/Src/main.c ****     HAL_GPIO_WritePin(Key_R3_GPIO_Port, Key_R3_Pin, 0);
 389:Core/Src/main.c ****     HAL_GPIO_WritePin(Key_R4_GPIO_Port, Key_R4_Pin, 0);
 390:Core/Src/main.c **** 
 391:Core/Src/main.c ****     if(GPIO_Pin == Key_C1_Pin && HAL_GPIO_ReadPin(Key_C1_GPIO_Port, Key_C1_Pin))
 392:Core/Src/main.c ****     {
 393:Core/Src/main.c ****       NumButtonPress(1);
 394:Core/Src/main.c ****       keyPressed = 49; //ASCII value of 1
 395:Core/Src/main.c ****     }
 396:Core/Src/main.c ****     else if(GPIO_Pin == Key_C2_Pin && HAL_GPIO_ReadPin(Key_C2_GPIO_Port, Key_C2_Pin))
 397:Core/Src/main.c ****     {
 398:Core/Src/main.c ****       NumButtonPress(2);
 399:Core/Src/main.c ****       keyPressed = 50; //ASCII value of 2
 400:Core/Src/main.c ****     }
 401:Core/Src/main.c ****     else if(GPIO_Pin == Key_C3_Pin && HAL_GPIO_ReadPin(Key_C3_GPIO_Port, Key_C3_Pin))
 402:Core/Src/main.c ****     {
 403:Core/Src/main.c ****       NumButtonPress(3);
 404:Core/Src/main.c ****       keyPressed = 51; //ASCII value of 3
 405:Core/Src/main.c ****     }
 406:Core/Src/main.c ****     else if(GPIO_Pin == Key_C4_Pin && HAL_GPIO_ReadPin(Key_C4_GPIO_Port, Key_C4_Pin))
 407:Core/Src/main.c ****     {
 408:Core/Src/main.c ****       keyPressed = 65; //ASCII value of A
 409:Core/Src/main.c ****     }
 410:Core/Src/main.c **** 
 411:Core/Src/main.c ****     HAL_GPIO_WritePin(Key_R1_GPIO_Port, Key_R1_Pin, 0);
 412:Core/Src/main.c ****     HAL_GPIO_WritePin(Key_R2_GPIO_Port, Key_R2_Pin, 1);
 413:Core/Src/main.c ****     HAL_GPIO_WritePin(Key_R3_GPIO_Port, Key_R3_Pin, 0);
 414:Core/Src/main.c ****     HAL_GPIO_WritePin(Key_R4_GPIO_Port, Key_R4_Pin, 0);
 415:Core/Src/main.c **** 
 416:Core/Src/main.c ****     if(GPIO_Pin == Key_C1_Pin && HAL_GPIO_ReadPin(Key_C1_GPIO_Port, Key_C1_Pin))
 417:Core/Src/main.c ****     {
 418:Core/Src/main.c ****       NumButtonPress(4);
 419:Core/Src/main.c ****       keyPressed = 52; //ASCII value of 4
ARM GAS  C:\Users\Joshua\AppData\Local\Temp\cchJYxqO.s 			page 16


 420:Core/Src/main.c ****     }
 421:Core/Src/main.c ****     else if(GPIO_Pin == Key_C2_Pin && HAL_GPIO_ReadPin(Key_C2_GPIO_Port, Key_C2_Pin))
 422:Core/Src/main.c ****     {
 423:Core/Src/main.c ****       NumButtonPress(5);
 424:Core/Src/main.c ****       keyPressed = 53; //ASCII value of 5
 425:Core/Src/main.c ****     }
 426:Core/Src/main.c ****     else if(GPIO_Pin == Key_C3_Pin && HAL_GPIO_ReadPin(Key_C3_GPIO_Port, Key_C3_Pin))
 427:Core/Src/main.c ****     {
 428:Core/Src/main.c ****       NumButtonPress(6);
 429:Core/Src/main.c ****       keyPressed = 54; //ASCII value of 6
 430:Core/Src/main.c ****     }
 431:Core/Src/main.c ****     else if(GPIO_Pin == Key_C4_Pin && HAL_GPIO_ReadPin(Key_C4_GPIO_Port, Key_C4_Pin))
 432:Core/Src/main.c ****     {
 433:Core/Src/main.c ****       keyPressed = 66; //ASCII value of B
 434:Core/Src/main.c ****     }
 435:Core/Src/main.c **** 
 436:Core/Src/main.c ****     HAL_GPIO_WritePin(Key_R1_GPIO_Port, Key_R1_Pin, 0);
 437:Core/Src/main.c ****     HAL_GPIO_WritePin(Key_R2_GPIO_Port, Key_R2_Pin, 0);
 438:Core/Src/main.c ****     HAL_GPIO_WritePin(Key_R3_GPIO_Port, Key_R3_Pin, 1);
 439:Core/Src/main.c ****     HAL_GPIO_WritePin(Key_R4_GPIO_Port, Key_R4_Pin, 0);
 440:Core/Src/main.c **** 
 441:Core/Src/main.c ****     if(GPIO_Pin == Key_C1_Pin && HAL_GPIO_ReadPin(Key_C1_GPIO_Port, Key_C1_Pin))
 442:Core/Src/main.c ****     {
 443:Core/Src/main.c ****       NumButtonPress(7);
 444:Core/Src/main.c ****       keyPressed = 55; //ASCII value of 7
 445:Core/Src/main.c ****     }
 446:Core/Src/main.c ****     else if(GPIO_Pin == Key_C2_Pin && HAL_GPIO_ReadPin(Key_C2_GPIO_Port, Key_C2_Pin))
 447:Core/Src/main.c ****     {
 448:Core/Src/main.c ****       NumButtonPress(8);
 449:Core/Src/main.c ****       keyPressed = 56; //ASCII value of 8
 450:Core/Src/main.c ****     }
 451:Core/Src/main.c ****     else if(GPIO_Pin == Key_C3_Pin && HAL_GPIO_ReadPin(Key_C3_GPIO_Port, Key_C3_Pin))
 452:Core/Src/main.c ****     {
 453:Core/Src/main.c ****       NumButtonPress(9);
 454:Core/Src/main.c ****       keyPressed = 57; //ASCII value of 9
 455:Core/Src/main.c ****     }
 456:Core/Src/main.c ****     else if(GPIO_Pin == Key_C4_Pin && HAL_GPIO_ReadPin(Key_C4_GPIO_Port, Key_C4_Pin))
 457:Core/Src/main.c ****     {
 458:Core/Src/main.c ****       keyPressed = 67; //ASCII value of C
 459:Core/Src/main.c ****     }
 460:Core/Src/main.c **** 
 461:Core/Src/main.c ****     HAL_GPIO_WritePin(Key_R1_GPIO_Port, Key_R1_Pin, 0);
 462:Core/Src/main.c ****     HAL_GPIO_WritePin(Key_R2_GPIO_Port, Key_R2_Pin, 0);
 463:Core/Src/main.c ****     HAL_GPIO_WritePin(Key_R3_GPIO_Port, Key_R3_Pin, 0);
 464:Core/Src/main.c ****     HAL_GPIO_WritePin(Key_R4_GPIO_Port, Key_R4_Pin, 1);
 465:Core/Src/main.c **** 
 466:Core/Src/main.c ****     if(GPIO_Pin == Key_C1_Pin && HAL_GPIO_ReadPin(Key_C1_GPIO_Port, Key_C1_Pin))
 467:Core/Src/main.c ****     {
 468:Core/Src/main.c ****       keyPressed = 42; //ASCII value of *
 469:Core/Src/main.c ****     }
 470:Core/Src/main.c ****     else if(GPIO_Pin == Key_C2_Pin && HAL_GPIO_ReadPin(Key_C2_GPIO_Port, Key_C2_Pin))
 471:Core/Src/main.c ****     {
 472:Core/Src/main.c ****       NumButtonPress(0);
 473:Core/Src/main.c ****       keyPressed = 48; //ASCII value of 0
 474:Core/Src/main.c ****     }
 475:Core/Src/main.c ****     else if(GPIO_Pin == Key_C3_Pin && HAL_GPIO_ReadPin(Key_C3_GPIO_Port, Key_C3_Pin))
 476:Core/Src/main.c ****     {
ARM GAS  C:\Users\Joshua\AppData\Local\Temp\cchJYxqO.s 			page 17


 477:Core/Src/main.c ****       settingTemp = 1;
 478:Core/Src/main.c ****       setTemp = 0;
 479:Core/Src/main.c ****       keyPressed = 35; //ASCII value of #
 480:Core/Src/main.c ****     }
 481:Core/Src/main.c ****     else if(GPIO_Pin == Key_C4_Pin && HAL_GPIO_ReadPin(Key_C4_GPIO_Port, Key_C4_Pin))
 482:Core/Src/main.c ****     {
 483:Core/Src/main.c ****       keyPressed = 68; //ASCII value of D
 484:Core/Src/main.c ****     }
 485:Core/Src/main.c **** 
 486:Core/Src/main.c ****     HAL_GPIO_WritePin(Key_R1_GPIO_Port, Key_R1_Pin, 1);
 487:Core/Src/main.c ****     HAL_GPIO_WritePin(Key_R2_GPIO_Port, Key_R2_Pin, 1);
 488:Core/Src/main.c ****     HAL_GPIO_WritePin(Key_R3_GPIO_Port, Key_R3_Pin, 1);
 489:Core/Src/main.c ****     HAL_GPIO_WritePin(Key_R4_GPIO_Port, Key_R4_Pin, 1);
 490:Core/Src/main.c **** 
 491:Core/Src/main.c ****     /*Configure GPIO pins : PB6 PB7 PB8 PB9 back to EXTI*/
 492:Core/Src/main.c ****     myGPIO_InitStruct.Mode = GPIO_MODE_IT_RISING;
 493:Core/Src/main.c ****     myGPIO_InitStruct.Pull = GPIO_PULLDOWN;
 494:Core/Src/main.c ****     HAL_GPIO_Init(Key_C1_GPIO_Port, &myGPIO_InitStruct);
 495:Core/Src/main.c **** 
 496:Core/Src/main.c ****     previousTimeInms = currentTimeInms;
 497:Core/Src/main.c ****   }
 498:Core/Src/main.c **** }
 434              		.loc 1 498 1 view .LVU105
 435 0018 38BD     		pop	{r3, r4, r5, pc}
 436              	.L55:
 380:Core/Src/main.c ****     myGPIO_InitStruct.Pin = Key_C1_Pin|Key_C2_Pin|Key_C3_Pin|Key_C4_Pin;
 437              		.loc 1 380 5 is_stmt 1 view .LVU106
 380:Core/Src/main.c ****     myGPIO_InitStruct.Pin = Key_C1_Pin|Key_C2_Pin|Key_C3_Pin|Key_C4_Pin;
 438              		.loc 1 380 27 is_stmt 0 view .LVU107
 439 001a CE49     		ldr	r1, .L72+8
 440 001c 4FF47073 		mov	r3, #960
 441 0020 0B60     		str	r3, [r1]
 381:Core/Src/main.c ****     myGPIO_InitStruct.Pull = GPIO_PULLDOWN;
 442              		.loc 1 381 5 is_stmt 1 view .LVU108
 381:Core/Src/main.c ****     myGPIO_InitStruct.Pull = GPIO_PULLDOWN;
 443              		.loc 1 381 28 is_stmt 0 view .LVU109
 444 0022 0025     		movs	r5, #0
 445 0024 4D60     		str	r5, [r1, #4]
 382:Core/Src/main.c ****     myGPIO_InitStruct.Speed = GPIO_SPEED_FREQ_LOW;
 446              		.loc 1 382 5 is_stmt 1 view .LVU110
 382:Core/Src/main.c ****     myGPIO_InitStruct.Speed = GPIO_SPEED_FREQ_LOW;
 447              		.loc 1 382 28 is_stmt 0 view .LVU111
 448 0026 0223     		movs	r3, #2
 449 0028 8B60     		str	r3, [r1, #8]
 383:Core/Src/main.c ****     HAL_GPIO_Init(GPIOA, &myGPIO_InitStruct);
 450              		.loc 1 383 5 is_stmt 1 view .LVU112
 383:Core/Src/main.c ****     HAL_GPIO_Init(GPIOA, &myGPIO_InitStruct);
 451              		.loc 1 383 29 is_stmt 0 view .LVU113
 452 002a CD60     		str	r5, [r1, #12]
 384:Core/Src/main.c **** 
 453              		.loc 1 384 5 is_stmt 1 view .LVU114
 454 002c 4FF09040 		mov	r0, #1207959552
 455 0030 FFF7FEFF 		bl	HAL_GPIO_Init
 456              	.LVL34:
 386:Core/Src/main.c ****     HAL_GPIO_WritePin(Key_R2_GPIO_Port, Key_R2_Pin, 0);
 457              		.loc 1 386 5 view .LVU115
 458 0034 0122     		movs	r2, #1
ARM GAS  C:\Users\Joshua\AppData\Local\Temp\cchJYxqO.s 			page 18


 459 0036 0421     		movs	r1, #4
 460 0038 4FF09040 		mov	r0, #1207959552
 461 003c FFF7FEFF 		bl	HAL_GPIO_WritePin
 462              	.LVL35:
 387:Core/Src/main.c ****     HAL_GPIO_WritePin(Key_R3_GPIO_Port, Key_R3_Pin, 0);
 463              		.loc 1 387 5 view .LVU116
 464 0040 2A46     		mov	r2, r5
 465 0042 0821     		movs	r1, #8
 466 0044 4FF09040 		mov	r0, #1207959552
 467 0048 FFF7FEFF 		bl	HAL_GPIO_WritePin
 468              	.LVL36:
 388:Core/Src/main.c ****     HAL_GPIO_WritePin(Key_R4_GPIO_Port, Key_R4_Pin, 0);
 469              		.loc 1 388 5 view .LVU117
 470 004c 2A46     		mov	r2, r5
 471 004e 1021     		movs	r1, #16
 472 0050 4FF09040 		mov	r0, #1207959552
 473 0054 FFF7FEFF 		bl	HAL_GPIO_WritePin
 474              	.LVL37:
 389:Core/Src/main.c **** 
 475              		.loc 1 389 5 view .LVU118
 476 0058 2A46     		mov	r2, r5
 477 005a 2021     		movs	r1, #32
 478 005c 4FF09040 		mov	r0, #1207959552
 479 0060 FFF7FEFF 		bl	HAL_GPIO_WritePin
 480              	.LVL38:
 391:Core/Src/main.c ****     {
 481              		.loc 1 391 5 view .LVU119
 391:Core/Src/main.c ****     {
 482              		.loc 1 391 7 is_stmt 0 view .LVU120
 483 0064 402C     		cmp	r4, #64
 484 0066 00F0A480 		beq	.L56
 485              	.L38:
 396:Core/Src/main.c ****     {
 486              		.loc 1 396 10 is_stmt 1 view .LVU121
 396:Core/Src/main.c ****     {
 487              		.loc 1 396 12 is_stmt 0 view .LVU122
 488 006a 802C     		cmp	r4, #128
 489 006c 00F0B080 		beq	.L57
 490              	.L40:
 401:Core/Src/main.c ****     {
 491              		.loc 1 401 10 is_stmt 1 view .LVU123
 401:Core/Src/main.c ****     {
 492              		.loc 1 401 12 is_stmt 0 view .LVU124
 493 0070 B4F5807F 		cmp	r4, #256
 494 0074 00F0BB80 		beq	.L58
 495              	.L41:
 406:Core/Src/main.c ****     {
 496              		.loc 1 406 10 is_stmt 1 view .LVU125
 406:Core/Src/main.c ****     {
 497              		.loc 1 406 12 is_stmt 0 view .LVU126
 498 0078 B4F5007F 		cmp	r4, #512
 499 007c 00F0C780 		beq	.L59
 500              	.L39:
 411:Core/Src/main.c ****     HAL_GPIO_WritePin(Key_R2_GPIO_Port, Key_R2_Pin, 1);
 501              		.loc 1 411 5 is_stmt 1 view .LVU127
 502 0080 0022     		movs	r2, #0
 503 0082 0421     		movs	r1, #4
ARM GAS  C:\Users\Joshua\AppData\Local\Temp\cchJYxqO.s 			page 19


 504 0084 4FF09040 		mov	r0, #1207959552
 505 0088 FFF7FEFF 		bl	HAL_GPIO_WritePin
 506              	.LVL39:
 412:Core/Src/main.c ****     HAL_GPIO_WritePin(Key_R3_GPIO_Port, Key_R3_Pin, 0);
 507              		.loc 1 412 5 view .LVU128
 508 008c 0122     		movs	r2, #1
 509 008e 0821     		movs	r1, #8
 510 0090 4FF09040 		mov	r0, #1207959552
 511 0094 FFF7FEFF 		bl	HAL_GPIO_WritePin
 512              	.LVL40:
 413:Core/Src/main.c ****     HAL_GPIO_WritePin(Key_R4_GPIO_Port, Key_R4_Pin, 0);
 513              		.loc 1 413 5 view .LVU129
 514 0098 0022     		movs	r2, #0
 515 009a 1021     		movs	r1, #16
 516 009c 4FF09040 		mov	r0, #1207959552
 517 00a0 FFF7FEFF 		bl	HAL_GPIO_WritePin
 518              	.LVL41:
 414:Core/Src/main.c **** 
 519              		.loc 1 414 5 view .LVU130
 520 00a4 0022     		movs	r2, #0
 521 00a6 2021     		movs	r1, #32
 522 00a8 4FF09040 		mov	r0, #1207959552
 523 00ac FFF7FEFF 		bl	HAL_GPIO_WritePin
 524              	.LVL42:
 416:Core/Src/main.c ****     {
 525              		.loc 1 416 5 view .LVU131
 416:Core/Src/main.c ****     {
 526              		.loc 1 416 7 is_stmt 0 view .LVU132
 527 00b0 402C     		cmp	r4, #64
 528 00b2 00F0B980 		beq	.L60
 529              	.L42:
 421:Core/Src/main.c ****     {
 530              		.loc 1 421 10 is_stmt 1 view .LVU133
 421:Core/Src/main.c ****     {
 531              		.loc 1 421 12 is_stmt 0 view .LVU134
 532 00b6 802C     		cmp	r4, #128
 533 00b8 00F0C580 		beq	.L61
 534              	.L44:
 426:Core/Src/main.c ****     {
 535              		.loc 1 426 10 is_stmt 1 view .LVU135
 426:Core/Src/main.c ****     {
 536              		.loc 1 426 12 is_stmt 0 view .LVU136
 537 00bc B4F5807F 		cmp	r4, #256
 538 00c0 00F0D080 		beq	.L62
 539              	.L45:
 431:Core/Src/main.c ****     {
 540              		.loc 1 431 10 is_stmt 1 view .LVU137
 431:Core/Src/main.c ****     {
 541              		.loc 1 431 12 is_stmt 0 view .LVU138
 542 00c4 B4F5007F 		cmp	r4, #512
 543 00c8 00F0DC80 		beq	.L63
 544              	.L43:
 436:Core/Src/main.c ****     HAL_GPIO_WritePin(Key_R2_GPIO_Port, Key_R2_Pin, 0);
 545              		.loc 1 436 5 is_stmt 1 view .LVU139
 546 00cc 0022     		movs	r2, #0
 547 00ce 0421     		movs	r1, #4
 548 00d0 4FF09040 		mov	r0, #1207959552
ARM GAS  C:\Users\Joshua\AppData\Local\Temp\cchJYxqO.s 			page 20


 549 00d4 FFF7FEFF 		bl	HAL_GPIO_WritePin
 550              	.LVL43:
 437:Core/Src/main.c ****     HAL_GPIO_WritePin(Key_R3_GPIO_Port, Key_R3_Pin, 1);
 551              		.loc 1 437 5 view .LVU140
 552 00d8 0022     		movs	r2, #0
 553 00da 0821     		movs	r1, #8
 554 00dc 4FF09040 		mov	r0, #1207959552
 555 00e0 FFF7FEFF 		bl	HAL_GPIO_WritePin
 556              	.LVL44:
 438:Core/Src/main.c ****     HAL_GPIO_WritePin(Key_R4_GPIO_Port, Key_R4_Pin, 0);
 557              		.loc 1 438 5 view .LVU141
 558 00e4 0122     		movs	r2, #1
 559 00e6 1021     		movs	r1, #16
 560 00e8 4FF09040 		mov	r0, #1207959552
 561 00ec FFF7FEFF 		bl	HAL_GPIO_WritePin
 562              	.LVL45:
 439:Core/Src/main.c **** 
 563              		.loc 1 439 5 view .LVU142
 564 00f0 0022     		movs	r2, #0
 565 00f2 2021     		movs	r1, #32
 566 00f4 4FF09040 		mov	r0, #1207959552
 567 00f8 FFF7FEFF 		bl	HAL_GPIO_WritePin
 568              	.LVL46:
 441:Core/Src/main.c ****     {
 569              		.loc 1 441 5 view .LVU143
 441:Core/Src/main.c ****     {
 570              		.loc 1 441 7 is_stmt 0 view .LVU144
 571 00fc 402C     		cmp	r4, #64
 572 00fe 00F0CE80 		beq	.L64
 573              	.L46:
 446:Core/Src/main.c ****     {
 574              		.loc 1 446 10 is_stmt 1 view .LVU145
 446:Core/Src/main.c ****     {
 575              		.loc 1 446 12 is_stmt 0 view .LVU146
 576 0102 802C     		cmp	r4, #128
 577 0104 00F0DA80 		beq	.L65
 578              	.L48:
 451:Core/Src/main.c ****     {
 579              		.loc 1 451 10 is_stmt 1 view .LVU147
 451:Core/Src/main.c ****     {
 580              		.loc 1 451 12 is_stmt 0 view .LVU148
 581 0108 B4F5807F 		cmp	r4, #256
 582 010c 00F0E580 		beq	.L66
 583              	.L49:
 456:Core/Src/main.c ****     {
 584              		.loc 1 456 10 is_stmt 1 view .LVU149
 456:Core/Src/main.c ****     {
 585              		.loc 1 456 12 is_stmt 0 view .LVU150
 586 0110 B4F5007F 		cmp	r4, #512
 587 0114 00F0F180 		beq	.L67
 588              	.L47:
 461:Core/Src/main.c ****     HAL_GPIO_WritePin(Key_R2_GPIO_Port, Key_R2_Pin, 0);
 589              		.loc 1 461 5 is_stmt 1 view .LVU151
 590 0118 0022     		movs	r2, #0
 591 011a 0421     		movs	r1, #4
 592 011c 4FF09040 		mov	r0, #1207959552
 593 0120 FFF7FEFF 		bl	HAL_GPIO_WritePin
ARM GAS  C:\Users\Joshua\AppData\Local\Temp\cchJYxqO.s 			page 21


 594              	.LVL47:
 462:Core/Src/main.c ****     HAL_GPIO_WritePin(Key_R3_GPIO_Port, Key_R3_Pin, 0);
 595              		.loc 1 462 5 view .LVU152
 596 0124 0022     		movs	r2, #0
 597 0126 0821     		movs	r1, #8
 598 0128 4FF09040 		mov	r0, #1207959552
 599 012c FFF7FEFF 		bl	HAL_GPIO_WritePin
 600              	.LVL48:
 463:Core/Src/main.c ****     HAL_GPIO_WritePin(Key_R4_GPIO_Port, Key_R4_Pin, 1);
 601              		.loc 1 463 5 view .LVU153
 602 0130 0022     		movs	r2, #0
 603 0132 1021     		movs	r1, #16
 604 0134 4FF09040 		mov	r0, #1207959552
 605 0138 FFF7FEFF 		bl	HAL_GPIO_WritePin
 606              	.LVL49:
 464:Core/Src/main.c **** 
 607              		.loc 1 464 5 view .LVU154
 608 013c 0122     		movs	r2, #1
 609 013e 2021     		movs	r1, #32
 610 0140 4FF09040 		mov	r0, #1207959552
 611 0144 FFF7FEFF 		bl	HAL_GPIO_WritePin
 612              	.LVL50:
 466:Core/Src/main.c ****     {
 613              		.loc 1 466 5 view .LVU155
 466:Core/Src/main.c ****     {
 614              		.loc 1 466 7 is_stmt 0 view .LVU156
 615 0148 402C     		cmp	r4, #64
 616 014a 00F0E380 		beq	.L68
 617              	.L50:
 470:Core/Src/main.c ****     {
 618              		.loc 1 470 10 is_stmt 1 view .LVU157
 470:Core/Src/main.c ****     {
 619              		.loc 1 470 12 is_stmt 0 view .LVU158
 620 014e 802C     		cmp	r4, #128
 621 0150 00F0EC80 		beq	.L69
 622              	.L52:
 475:Core/Src/main.c ****     {
 623              		.loc 1 475 10 is_stmt 1 view .LVU159
 475:Core/Src/main.c ****     {
 624              		.loc 1 475 12 is_stmt 0 view .LVU160
 625 0154 B4F5807F 		cmp	r4, #256
 626 0158 00F00081 		beq	.L70
 627              	.L53:
 481:Core/Src/main.c ****     {
 628              		.loc 1 481 10 is_stmt 1 view .LVU161
 481:Core/Src/main.c ****     {
 629              		.loc 1 481 12 is_stmt 0 view .LVU162
 630 015c B4F5007F 		cmp	r4, #512
 631 0160 00F00F81 		beq	.L71
 632              	.L51:
 486:Core/Src/main.c ****     HAL_GPIO_WritePin(Key_R2_GPIO_Port, Key_R2_Pin, 1);
 633              		.loc 1 486 5 is_stmt 1 view .LVU163
 634 0164 0122     		movs	r2, #1
 635 0166 0421     		movs	r1, #4
 636 0168 4FF09040 		mov	r0, #1207959552
 637 016c FFF7FEFF 		bl	HAL_GPIO_WritePin
 638              	.LVL51:
ARM GAS  C:\Users\Joshua\AppData\Local\Temp\cchJYxqO.s 			page 22


 487:Core/Src/main.c ****     HAL_GPIO_WritePin(Key_R3_GPIO_Port, Key_R3_Pin, 1);
 639              		.loc 1 487 5 view .LVU164
 640 0170 0122     		movs	r2, #1
 641 0172 0821     		movs	r1, #8
 642 0174 4FF09040 		mov	r0, #1207959552
 643 0178 FFF7FEFF 		bl	HAL_GPIO_WritePin
 644              	.LVL52:
 488:Core/Src/main.c ****     HAL_GPIO_WritePin(Key_R4_GPIO_Port, Key_R4_Pin, 1);
 645              		.loc 1 488 5 view .LVU165
 646 017c 0122     		movs	r2, #1
 647 017e 1021     		movs	r1, #16
 648 0180 4FF09040 		mov	r0, #1207959552
 649 0184 FFF7FEFF 		bl	HAL_GPIO_WritePin
 650              	.LVL53:
 489:Core/Src/main.c **** 
 651              		.loc 1 489 5 view .LVU166
 652 0188 0122     		movs	r2, #1
 653 018a 2021     		movs	r1, #32
 654 018c 4FF09040 		mov	r0, #1207959552
 655 0190 FFF7FEFF 		bl	HAL_GPIO_WritePin
 656              	.LVL54:
 492:Core/Src/main.c ****     myGPIO_InitStruct.Pull = GPIO_PULLDOWN;
 657              		.loc 1 492 5 view .LVU167
 492:Core/Src/main.c ****     myGPIO_InitStruct.Pull = GPIO_PULLDOWN;
 658              		.loc 1 492 28 is_stmt 0 view .LVU168
 659 0194 6F49     		ldr	r1, .L72+8
 660 0196 4FF48813 		mov	r3, #1114112
 661 019a 4B60     		str	r3, [r1, #4]
 493:Core/Src/main.c ****     HAL_GPIO_Init(Key_C1_GPIO_Port, &myGPIO_InitStruct);
 662              		.loc 1 493 5 is_stmt 1 view .LVU169
 493:Core/Src/main.c ****     HAL_GPIO_Init(Key_C1_GPIO_Port, &myGPIO_InitStruct);
 663              		.loc 1 493 28 is_stmt 0 view .LVU170
 664 019c 0223     		movs	r3, #2
 665 019e 8B60     		str	r3, [r1, #8]
 494:Core/Src/main.c **** 
 666              		.loc 1 494 5 is_stmt 1 view .LVU171
 667 01a0 4FF09040 		mov	r0, #1207959552
 668 01a4 FFF7FEFF 		bl	HAL_GPIO_Init
 669              	.LVL55:
 496:Core/Src/main.c ****   }
 670              		.loc 1 496 5 view .LVU172
 496:Core/Src/main.c ****   }
 671              		.loc 1 496 22 is_stmt 0 view .LVU173
 672 01a8 684B     		ldr	r3, .L72
 673 01aa 1A68     		ldr	r2, [r3]
 674 01ac 684B     		ldr	r3, .L72+4
 675 01ae 1A60     		str	r2, [r3]
 676              		.loc 1 498 1 view .LVU174
 677 01b0 32E7     		b	.L36
 678              	.L56:
 391:Core/Src/main.c ****     {
 679              		.loc 1 391 34 discriminator 1 view .LVU175
 680 01b2 4021     		movs	r1, #64
 681 01b4 4FF09040 		mov	r0, #1207959552
 682 01b8 FFF7FEFF 		bl	HAL_GPIO_ReadPin
 683              	.LVL56:
 391:Core/Src/main.c ****     {
ARM GAS  C:\Users\Joshua\AppData\Local\Temp\cchJYxqO.s 			page 23


 684              		.loc 1 391 31 discriminator 1 view .LVU176
 685 01bc 0028     		cmp	r0, #0
 686 01be 3FF454AF 		beq	.L38
 393:Core/Src/main.c ****       keyPressed = 49; //ASCII value of 1
 687              		.loc 1 393 7 is_stmt 1 view .LVU177
 688 01c2 0120     		movs	r0, #1
 689 01c4 FFF7FEFF 		bl	NumButtonPress
 690              	.LVL57:
 394:Core/Src/main.c ****     }
 691              		.loc 1 394 7 view .LVU178
 394:Core/Src/main.c ****     }
 692              		.loc 1 394 18 is_stmt 0 view .LVU179
 693 01c8 634B     		ldr	r3, .L72+12
 694 01ca 3122     		movs	r2, #49
 695 01cc 1A70     		strb	r2, [r3]
 696 01ce 57E7     		b	.L39
 697              	.L57:
 396:Core/Src/main.c ****     {
 698              		.loc 1 396 39 discriminator 1 view .LVU180
 699 01d0 8021     		movs	r1, #128
 700 01d2 4FF09040 		mov	r0, #1207959552
 701 01d6 FFF7FEFF 		bl	HAL_GPIO_ReadPin
 702              	.LVL58:
 396:Core/Src/main.c ****     {
 703              		.loc 1 396 36 discriminator 1 view .LVU181
 704 01da 0028     		cmp	r0, #0
 705 01dc 3FF448AF 		beq	.L40
 398:Core/Src/main.c ****       keyPressed = 50; //ASCII value of 2
 706              		.loc 1 398 7 is_stmt 1 view .LVU182
 707 01e0 0220     		movs	r0, #2
 708 01e2 FFF7FEFF 		bl	NumButtonPress
 709              	.LVL59:
 399:Core/Src/main.c ****     }
 710              		.loc 1 399 7 view .LVU183
 399:Core/Src/main.c ****     }
 711              		.loc 1 399 18 is_stmt 0 view .LVU184
 712 01e6 5C4B     		ldr	r3, .L72+12
 713 01e8 3222     		movs	r2, #50
 714 01ea 1A70     		strb	r2, [r3]
 715 01ec 48E7     		b	.L39
 716              	.L58:
 401:Core/Src/main.c ****     {
 717              		.loc 1 401 39 discriminator 1 view .LVU185
 718 01ee 4FF48071 		mov	r1, #256
 719 01f2 4FF09040 		mov	r0, #1207959552
 720 01f6 FFF7FEFF 		bl	HAL_GPIO_ReadPin
 721              	.LVL60:
 401:Core/Src/main.c ****     {
 722              		.loc 1 401 36 discriminator 1 view .LVU186
 723 01fa 0028     		cmp	r0, #0
 724 01fc 3FF43CAF 		beq	.L41
 403:Core/Src/main.c ****       keyPressed = 51; //ASCII value of 3
 725              		.loc 1 403 7 is_stmt 1 view .LVU187
 726 0200 0320     		movs	r0, #3
 727 0202 FFF7FEFF 		bl	NumButtonPress
 728              	.LVL61:
 404:Core/Src/main.c ****     }
ARM GAS  C:\Users\Joshua\AppData\Local\Temp\cchJYxqO.s 			page 24


 729              		.loc 1 404 7 view .LVU188
 404:Core/Src/main.c ****     }
 730              		.loc 1 404 18 is_stmt 0 view .LVU189
 731 0206 544B     		ldr	r3, .L72+12
 732 0208 3322     		movs	r2, #51
 733 020a 1A70     		strb	r2, [r3]
 734 020c 38E7     		b	.L39
 735              	.L59:
 406:Core/Src/main.c ****     {
 736              		.loc 1 406 39 discriminator 1 view .LVU190
 737 020e 4FF40071 		mov	r1, #512
 738 0212 4FF09040 		mov	r0, #1207959552
 739 0216 FFF7FEFF 		bl	HAL_GPIO_ReadPin
 740              	.LVL62:
 406:Core/Src/main.c ****     {
 741              		.loc 1 406 36 discriminator 1 view .LVU191
 742 021a 0028     		cmp	r0, #0
 743 021c 3FF430AF 		beq	.L39
 408:Core/Src/main.c ****     }
 744              		.loc 1 408 7 is_stmt 1 view .LVU192
 408:Core/Src/main.c ****     }
 745              		.loc 1 408 18 is_stmt 0 view .LVU193
 746 0220 4D4B     		ldr	r3, .L72+12
 747 0222 4122     		movs	r2, #65
 748 0224 1A70     		strb	r2, [r3]
 749 0226 2BE7     		b	.L39
 750              	.L60:
 416:Core/Src/main.c ****     {
 751              		.loc 1 416 34 discriminator 1 view .LVU194
 752 0228 4021     		movs	r1, #64
 753 022a 4FF09040 		mov	r0, #1207959552
 754 022e FFF7FEFF 		bl	HAL_GPIO_ReadPin
 755              	.LVL63:
 416:Core/Src/main.c ****     {
 756              		.loc 1 416 31 discriminator 1 view .LVU195
 757 0232 0028     		cmp	r0, #0
 758 0234 3FF43FAF 		beq	.L42
 418:Core/Src/main.c ****       keyPressed = 52; //ASCII value of 4
 759              		.loc 1 418 7 is_stmt 1 view .LVU196
 760 0238 0420     		movs	r0, #4
 761 023a FFF7FEFF 		bl	NumButtonPress
 762              	.LVL64:
 419:Core/Src/main.c ****     }
 763              		.loc 1 419 7 view .LVU197
 419:Core/Src/main.c ****     }
 764              		.loc 1 419 18 is_stmt 0 view .LVU198
 765 023e 464B     		ldr	r3, .L72+12
 766 0240 3422     		movs	r2, #52
 767 0242 1A70     		strb	r2, [r3]
 768 0244 42E7     		b	.L43
 769              	.L61:
 421:Core/Src/main.c ****     {
 770              		.loc 1 421 39 discriminator 1 view .LVU199
 771 0246 8021     		movs	r1, #128
 772 0248 4FF09040 		mov	r0, #1207959552
 773 024c FFF7FEFF 		bl	HAL_GPIO_ReadPin
 774              	.LVL65:
ARM GAS  C:\Users\Joshua\AppData\Local\Temp\cchJYxqO.s 			page 25


 421:Core/Src/main.c ****     {
 775              		.loc 1 421 36 discriminator 1 view .LVU200
 776 0250 0028     		cmp	r0, #0
 777 0252 3FF433AF 		beq	.L44
 423:Core/Src/main.c ****       keyPressed = 53; //ASCII value of 5
 778              		.loc 1 423 7 is_stmt 1 view .LVU201
 779 0256 0520     		movs	r0, #5
 780 0258 FFF7FEFF 		bl	NumButtonPress
 781              	.LVL66:
 424:Core/Src/main.c ****     }
 782              		.loc 1 424 7 view .LVU202
 424:Core/Src/main.c ****     }
 783              		.loc 1 424 18 is_stmt 0 view .LVU203
 784 025c 3E4B     		ldr	r3, .L72+12
 785 025e 3522     		movs	r2, #53
 786 0260 1A70     		strb	r2, [r3]
 787 0262 33E7     		b	.L43
 788              	.L62:
 426:Core/Src/main.c ****     {
 789              		.loc 1 426 39 discriminator 1 view .LVU204
 790 0264 4FF48071 		mov	r1, #256
 791 0268 4FF09040 		mov	r0, #1207959552
 792 026c FFF7FEFF 		bl	HAL_GPIO_ReadPin
 793              	.LVL67:
 426:Core/Src/main.c ****     {
 794              		.loc 1 426 36 discriminator 1 view .LVU205
 795 0270 0028     		cmp	r0, #0
 796 0272 3FF427AF 		beq	.L45
 428:Core/Src/main.c ****       keyPressed = 54; //ASCII value of 6
 797              		.loc 1 428 7 is_stmt 1 view .LVU206
 798 0276 0620     		movs	r0, #6
 799 0278 FFF7FEFF 		bl	NumButtonPress
 800              	.LVL68:
 429:Core/Src/main.c ****     }
 801              		.loc 1 429 7 view .LVU207
 429:Core/Src/main.c ****     }
 802              		.loc 1 429 18 is_stmt 0 view .LVU208
 803 027c 364B     		ldr	r3, .L72+12
 804 027e 3622     		movs	r2, #54
 805 0280 1A70     		strb	r2, [r3]
 806 0282 23E7     		b	.L43
 807              	.L63:
 431:Core/Src/main.c ****     {
 808              		.loc 1 431 39 discriminator 1 view .LVU209
 809 0284 4FF40071 		mov	r1, #512
 810 0288 4FF09040 		mov	r0, #1207959552
 811 028c FFF7FEFF 		bl	HAL_GPIO_ReadPin
 812              	.LVL69:
 431:Core/Src/main.c ****     {
 813              		.loc 1 431 36 discriminator 1 view .LVU210
 814 0290 0028     		cmp	r0, #0
 815 0292 3FF41BAF 		beq	.L43
 433:Core/Src/main.c ****     }
 816              		.loc 1 433 7 is_stmt 1 view .LVU211
 433:Core/Src/main.c ****     }
 817              		.loc 1 433 18 is_stmt 0 view .LVU212
 818 0296 304B     		ldr	r3, .L72+12
ARM GAS  C:\Users\Joshua\AppData\Local\Temp\cchJYxqO.s 			page 26


 819 0298 4222     		movs	r2, #66
 820 029a 1A70     		strb	r2, [r3]
 821 029c 16E7     		b	.L43
 822              	.L64:
 441:Core/Src/main.c ****     {
 823              		.loc 1 441 34 discriminator 1 view .LVU213
 824 029e 4021     		movs	r1, #64
 825 02a0 4FF09040 		mov	r0, #1207959552
 826 02a4 FFF7FEFF 		bl	HAL_GPIO_ReadPin
 827              	.LVL70:
 441:Core/Src/main.c ****     {
 828              		.loc 1 441 31 discriminator 1 view .LVU214
 829 02a8 0028     		cmp	r0, #0
 830 02aa 3FF42AAF 		beq	.L46
 443:Core/Src/main.c ****       keyPressed = 55; //ASCII value of 7
 831              		.loc 1 443 7 is_stmt 1 view .LVU215
 832 02ae 0720     		movs	r0, #7
 833 02b0 FFF7FEFF 		bl	NumButtonPress
 834              	.LVL71:
 444:Core/Src/main.c ****     }
 835              		.loc 1 444 7 view .LVU216
 444:Core/Src/main.c ****     }
 836              		.loc 1 444 18 is_stmt 0 view .LVU217
 837 02b4 284B     		ldr	r3, .L72+12
 838 02b6 3722     		movs	r2, #55
 839 02b8 1A70     		strb	r2, [r3]
 840 02ba 2DE7     		b	.L47
 841              	.L65:
 446:Core/Src/main.c ****     {
 842              		.loc 1 446 39 discriminator 1 view .LVU218
 843 02bc 8021     		movs	r1, #128
 844 02be 4FF09040 		mov	r0, #1207959552
 845 02c2 FFF7FEFF 		bl	HAL_GPIO_ReadPin
 846              	.LVL72:
 446:Core/Src/main.c ****     {
 847              		.loc 1 446 36 discriminator 1 view .LVU219
 848 02c6 0028     		cmp	r0, #0
 849 02c8 3FF41EAF 		beq	.L48
 448:Core/Src/main.c ****       keyPressed = 56; //ASCII value of 8
 850              		.loc 1 448 7 is_stmt 1 view .LVU220
 851 02cc 0820     		movs	r0, #8
 852 02ce FFF7FEFF 		bl	NumButtonPress
 853              	.LVL73:
 449:Core/Src/main.c ****     }
 854              		.loc 1 449 7 view .LVU221
 449:Core/Src/main.c ****     }
 855              		.loc 1 449 18 is_stmt 0 view .LVU222
 856 02d2 214B     		ldr	r3, .L72+12
 857 02d4 3822     		movs	r2, #56
 858 02d6 1A70     		strb	r2, [r3]
 859 02d8 1EE7     		b	.L47
 860              	.L66:
 451:Core/Src/main.c ****     {
 861              		.loc 1 451 39 discriminator 1 view .LVU223
 862 02da 4FF48071 		mov	r1, #256
 863 02de 4FF09040 		mov	r0, #1207959552
 864 02e2 FFF7FEFF 		bl	HAL_GPIO_ReadPin
ARM GAS  C:\Users\Joshua\AppData\Local\Temp\cchJYxqO.s 			page 27


 865              	.LVL74:
 451:Core/Src/main.c ****     {
 866              		.loc 1 451 36 discriminator 1 view .LVU224
 867 02e6 0028     		cmp	r0, #0
 868 02e8 3FF412AF 		beq	.L49
 453:Core/Src/main.c ****       keyPressed = 57; //ASCII value of 9
 869              		.loc 1 453 7 is_stmt 1 view .LVU225
 870 02ec 0920     		movs	r0, #9
 871 02ee FFF7FEFF 		bl	NumButtonPress
 872              	.LVL75:
 454:Core/Src/main.c ****     }
 873              		.loc 1 454 7 view .LVU226
 454:Core/Src/main.c ****     }
 874              		.loc 1 454 18 is_stmt 0 view .LVU227
 875 02f2 194B     		ldr	r3, .L72+12
 876 02f4 3922     		movs	r2, #57
 877 02f6 1A70     		strb	r2, [r3]
 878 02f8 0EE7     		b	.L47
 879              	.L67:
 456:Core/Src/main.c ****     {
 880              		.loc 1 456 39 discriminator 1 view .LVU228
 881 02fa 4FF40071 		mov	r1, #512
 882 02fe 4FF09040 		mov	r0, #1207959552
 883 0302 FFF7FEFF 		bl	HAL_GPIO_ReadPin
 884              	.LVL76:
 456:Core/Src/main.c ****     {
 885              		.loc 1 456 36 discriminator 1 view .LVU229
 886 0306 0028     		cmp	r0, #0
 887 0308 3FF406AF 		beq	.L47
 458:Core/Src/main.c ****     }
 888              		.loc 1 458 7 is_stmt 1 view .LVU230
 458:Core/Src/main.c ****     }
 889              		.loc 1 458 18 is_stmt 0 view .LVU231
 890 030c 124B     		ldr	r3, .L72+12
 891 030e 4322     		movs	r2, #67
 892 0310 1A70     		strb	r2, [r3]
 893 0312 01E7     		b	.L47
 894              	.L68:
 466:Core/Src/main.c ****     {
 895              		.loc 1 466 34 discriminator 1 view .LVU232
 896 0314 4021     		movs	r1, #64
 897 0316 4FF09040 		mov	r0, #1207959552
 898 031a FFF7FEFF 		bl	HAL_GPIO_ReadPin
 899              	.LVL77:
 466:Core/Src/main.c ****     {
 900              		.loc 1 466 31 discriminator 1 view .LVU233
 901 031e 0028     		cmp	r0, #0
 902 0320 3FF415AF 		beq	.L50
 468:Core/Src/main.c ****     }
 903              		.loc 1 468 7 is_stmt 1 view .LVU234
 468:Core/Src/main.c ****     }
 904              		.loc 1 468 18 is_stmt 0 view .LVU235
 905 0324 0C4B     		ldr	r3, .L72+12
 906 0326 2A22     		movs	r2, #42
 907 0328 1A70     		strb	r2, [r3]
 908 032a 1BE7     		b	.L51
 909              	.L69:
ARM GAS  C:\Users\Joshua\AppData\Local\Temp\cchJYxqO.s 			page 28


 470:Core/Src/main.c ****     {
 910              		.loc 1 470 39 discriminator 1 view .LVU236
 911 032c 8021     		movs	r1, #128
 912 032e 4FF09040 		mov	r0, #1207959552
 913 0332 FFF7FEFF 		bl	HAL_GPIO_ReadPin
 914              	.LVL78:
 470:Core/Src/main.c ****     {
 915              		.loc 1 470 36 discriminator 1 view .LVU237
 916 0336 0028     		cmp	r0, #0
 917 0338 3FF40CAF 		beq	.L52
 472:Core/Src/main.c ****       keyPressed = 48; //ASCII value of 0
 918              		.loc 1 472 7 is_stmt 1 view .LVU238
 919 033c 0020     		movs	r0, #0
 920 033e FFF7FEFF 		bl	NumButtonPress
 921              	.LVL79:
 473:Core/Src/main.c ****     }
 922              		.loc 1 473 7 view .LVU239
 473:Core/Src/main.c ****     }
 923              		.loc 1 473 18 is_stmt 0 view .LVU240
 924 0342 054B     		ldr	r3, .L72+12
 925 0344 3022     		movs	r2, #48
 926 0346 1A70     		strb	r2, [r3]
 927 0348 0CE7     		b	.L51
 928              	.L73:
 929 034a 00BF     		.align	2
 930              	.L72:
 931 034c 00000000 		.word	currentTimeInms
 932 0350 00000000 		.word	previousTimeInms
 933 0354 00000000 		.word	myGPIO_InitStruct
 934 0358 00000000 		.word	keyPressed
 935              	.L70:
 475:Core/Src/main.c ****     {
 936              		.loc 1 475 39 discriminator 1 view .LVU241
 937 035c 4FF48071 		mov	r1, #256
 938 0360 4FF09040 		mov	r0, #1207959552
 939 0364 FFF7FEFF 		bl	HAL_GPIO_ReadPin
 940              	.LVL80:
 475:Core/Src/main.c ****     {
 941              		.loc 1 475 36 discriminator 1 view .LVU242
 942 0368 0028     		cmp	r0, #0
 943 036a 3FF4F7AE 		beq	.L53
 477:Core/Src/main.c ****       setTemp = 0;
 944              		.loc 1 477 7 is_stmt 1 view .LVU243
 477:Core/Src/main.c ****       setTemp = 0;
 945              		.loc 1 477 19 is_stmt 0 view .LVU244
 946 036e 0B4B     		ldr	r3, .L74
 947 0370 0122     		movs	r2, #1
 948 0372 1A70     		strb	r2, [r3]
 478:Core/Src/main.c ****       keyPressed = 35; //ASCII value of #
 949              		.loc 1 478 7 is_stmt 1 view .LVU245
 478:Core/Src/main.c ****       keyPressed = 35; //ASCII value of #
 950              		.loc 1 478 15 is_stmt 0 view .LVU246
 951 0374 0A4B     		ldr	r3, .L74+4
 952 0376 0022     		movs	r2, #0
 953 0378 1A70     		strb	r2, [r3]
 479:Core/Src/main.c ****     }
 954              		.loc 1 479 7 is_stmt 1 view .LVU247
ARM GAS  C:\Users\Joshua\AppData\Local\Temp\cchJYxqO.s 			page 29


 479:Core/Src/main.c ****     }
 955              		.loc 1 479 18 is_stmt 0 view .LVU248
 956 037a 0A4B     		ldr	r3, .L74+8
 957 037c 2322     		movs	r2, #35
 958 037e 1A70     		strb	r2, [r3]
 959 0380 F0E6     		b	.L51
 960              	.L71:
 481:Core/Src/main.c ****     {
 961              		.loc 1 481 39 discriminator 1 view .LVU249
 962 0382 4FF40071 		mov	r1, #512
 963 0386 4FF09040 		mov	r0, #1207959552
 964 038a FFF7FEFF 		bl	HAL_GPIO_ReadPin
 965              	.LVL81:
 481:Core/Src/main.c ****     {
 966              		.loc 1 481 36 discriminator 1 view .LVU250
 967 038e 0028     		cmp	r0, #0
 968 0390 3FF4E8AE 		beq	.L51
 483:Core/Src/main.c ****     }
 969              		.loc 1 483 7 is_stmt 1 view .LVU251
 483:Core/Src/main.c ****     }
 970              		.loc 1 483 18 is_stmt 0 view .LVU252
 971 0394 034B     		ldr	r3, .L74+8
 972 0396 4422     		movs	r2, #68
 973 0398 1A70     		strb	r2, [r3]
 974 039a E3E6     		b	.L51
 975              	.L75:
 976              		.align	2
 977              	.L74:
 978 039c 00000000 		.word	settingTemp
 979 03a0 00000000 		.word	setTemp
 980 03a4 00000000 		.word	keyPressed
 981              		.cfi_endproc
 982              	.LFE961:
 984              		.section	.text.Error_Handler,"ax",%progbits
 985              		.align	1
 986              		.global	Error_Handler
 987              		.syntax unified
 988              		.thumb
 989              		.thumb_func
 991              	Error_Handler:
 992              	.LFB962:
 499:Core/Src/main.c **** 
 500:Core/Src/main.c **** /* USER CODE END 4 */
 501:Core/Src/main.c **** 
 502:Core/Src/main.c **** /**
 503:Core/Src/main.c ****   * @brief  This function is executed in case of error occurrence.
 504:Core/Src/main.c ****   * @retval None
 505:Core/Src/main.c ****   */
 506:Core/Src/main.c **** void Error_Handler(void)
 507:Core/Src/main.c **** {
 993              		.loc 1 507 1 is_stmt 1 view -0
 994              		.cfi_startproc
 995              		@ Volatile: function does not return.
 996              		@ args = 0, pretend = 0, frame = 0
 997              		@ frame_needed = 0, uses_anonymous_args = 0
 998              		@ link register save eliminated.
 508:Core/Src/main.c ****   /* USER CODE BEGIN Error_Handler_Debug */
ARM GAS  C:\Users\Joshua\AppData\Local\Temp\cchJYxqO.s 			page 30


 509:Core/Src/main.c ****   /* User can add his own implementation to report the HAL error return state */
 510:Core/Src/main.c ****   __disable_irq();
 999              		.loc 1 510 3 view .LVU254
 1000              	.LBB7:
 1001              	.LBI7:
 1002              		.file 2 "Drivers/CMSIS/Include/cmsis_gcc.h"
   1:Drivers/CMSIS/Include/cmsis_gcc.h **** /**************************************************************************//**
   2:Drivers/CMSIS/Include/cmsis_gcc.h ****  * @file     cmsis_gcc.h
   3:Drivers/CMSIS/Include/cmsis_gcc.h ****  * @brief    CMSIS compiler GCC header file
   4:Drivers/CMSIS/Include/cmsis_gcc.h ****  * @version  V5.2.0
   5:Drivers/CMSIS/Include/cmsis_gcc.h ****  * @date     08. May 2019
   6:Drivers/CMSIS/Include/cmsis_gcc.h ****  ******************************************************************************/
   7:Drivers/CMSIS/Include/cmsis_gcc.h **** /*
   8:Drivers/CMSIS/Include/cmsis_gcc.h ****  * Copyright (c) 2009-2019 Arm Limited. All rights reserved.
   9:Drivers/CMSIS/Include/cmsis_gcc.h ****  *
  10:Drivers/CMSIS/Include/cmsis_gcc.h ****  * SPDX-License-Identifier: Apache-2.0
  11:Drivers/CMSIS/Include/cmsis_gcc.h ****  *
  12:Drivers/CMSIS/Include/cmsis_gcc.h ****  * Licensed under the Apache License, Version 2.0 (the License); you may
  13:Drivers/CMSIS/Include/cmsis_gcc.h ****  * not use this file except in compliance with the License.
  14:Drivers/CMSIS/Include/cmsis_gcc.h ****  * You may obtain a copy of the License at
  15:Drivers/CMSIS/Include/cmsis_gcc.h ****  *
  16:Drivers/CMSIS/Include/cmsis_gcc.h ****  * www.apache.org/licenses/LICENSE-2.0
  17:Drivers/CMSIS/Include/cmsis_gcc.h ****  *
  18:Drivers/CMSIS/Include/cmsis_gcc.h ****  * Unless required by applicable law or agreed to in writing, software
  19:Drivers/CMSIS/Include/cmsis_gcc.h ****  * distributed under the License is distributed on an AS IS BASIS, WITHOUT
  20:Drivers/CMSIS/Include/cmsis_gcc.h ****  * WARRANTIES OR CONDITIONS OF ANY KIND, either express or implied.
  21:Drivers/CMSIS/Include/cmsis_gcc.h ****  * See the License for the specific language governing permissions and
  22:Drivers/CMSIS/Include/cmsis_gcc.h ****  * limitations under the License.
  23:Drivers/CMSIS/Include/cmsis_gcc.h ****  */
  24:Drivers/CMSIS/Include/cmsis_gcc.h **** 
  25:Drivers/CMSIS/Include/cmsis_gcc.h **** #ifndef __CMSIS_GCC_H
  26:Drivers/CMSIS/Include/cmsis_gcc.h **** #define __CMSIS_GCC_H
  27:Drivers/CMSIS/Include/cmsis_gcc.h **** 
  28:Drivers/CMSIS/Include/cmsis_gcc.h **** /* ignore some GCC warnings */
  29:Drivers/CMSIS/Include/cmsis_gcc.h **** #pragma GCC diagnostic push
  30:Drivers/CMSIS/Include/cmsis_gcc.h **** #pragma GCC diagnostic ignored "-Wsign-conversion"
  31:Drivers/CMSIS/Include/cmsis_gcc.h **** #pragma GCC diagnostic ignored "-Wconversion"
  32:Drivers/CMSIS/Include/cmsis_gcc.h **** #pragma GCC diagnostic ignored "-Wunused-parameter"
  33:Drivers/CMSIS/Include/cmsis_gcc.h **** 
  34:Drivers/CMSIS/Include/cmsis_gcc.h **** /* Fallback for __has_builtin */
  35:Drivers/CMSIS/Include/cmsis_gcc.h **** #ifndef __has_builtin
  36:Drivers/CMSIS/Include/cmsis_gcc.h ****   #define __has_builtin(x) (0)
  37:Drivers/CMSIS/Include/cmsis_gcc.h **** #endif
  38:Drivers/CMSIS/Include/cmsis_gcc.h **** 
  39:Drivers/CMSIS/Include/cmsis_gcc.h **** /* CMSIS compiler specific defines */
  40:Drivers/CMSIS/Include/cmsis_gcc.h **** #ifndef   __ASM
  41:Drivers/CMSIS/Include/cmsis_gcc.h ****   #define __ASM                                  __asm
  42:Drivers/CMSIS/Include/cmsis_gcc.h **** #endif
  43:Drivers/CMSIS/Include/cmsis_gcc.h **** #ifndef   __INLINE
  44:Drivers/CMSIS/Include/cmsis_gcc.h ****   #define __INLINE                               inline
  45:Drivers/CMSIS/Include/cmsis_gcc.h **** #endif
  46:Drivers/CMSIS/Include/cmsis_gcc.h **** #ifndef   __STATIC_INLINE
  47:Drivers/CMSIS/Include/cmsis_gcc.h ****   #define __STATIC_INLINE                        static inline
  48:Drivers/CMSIS/Include/cmsis_gcc.h **** #endif
  49:Drivers/CMSIS/Include/cmsis_gcc.h **** #ifndef   __STATIC_FORCEINLINE                 
  50:Drivers/CMSIS/Include/cmsis_gcc.h ****   #define __STATIC_FORCEINLINE                   __attribute__((always_inline)) static inline
  51:Drivers/CMSIS/Include/cmsis_gcc.h **** #endif                                           
ARM GAS  C:\Users\Joshua\AppData\Local\Temp\cchJYxqO.s 			page 31


  52:Drivers/CMSIS/Include/cmsis_gcc.h **** #ifndef   __NO_RETURN
  53:Drivers/CMSIS/Include/cmsis_gcc.h ****   #define __NO_RETURN                            __attribute__((__noreturn__))
  54:Drivers/CMSIS/Include/cmsis_gcc.h **** #endif
  55:Drivers/CMSIS/Include/cmsis_gcc.h **** #ifndef   __USED
  56:Drivers/CMSIS/Include/cmsis_gcc.h ****   #define __USED                                 __attribute__((used))
  57:Drivers/CMSIS/Include/cmsis_gcc.h **** #endif
  58:Drivers/CMSIS/Include/cmsis_gcc.h **** #ifndef   __WEAK
  59:Drivers/CMSIS/Include/cmsis_gcc.h ****   #define __WEAK                                 __attribute__((weak))
  60:Drivers/CMSIS/Include/cmsis_gcc.h **** #endif
  61:Drivers/CMSIS/Include/cmsis_gcc.h **** #ifndef   __PACKED
  62:Drivers/CMSIS/Include/cmsis_gcc.h ****   #define __PACKED                               __attribute__((packed, aligned(1)))
  63:Drivers/CMSIS/Include/cmsis_gcc.h **** #endif
  64:Drivers/CMSIS/Include/cmsis_gcc.h **** #ifndef   __PACKED_STRUCT
  65:Drivers/CMSIS/Include/cmsis_gcc.h ****   #define __PACKED_STRUCT                        struct __attribute__((packed, aligned(1)))
  66:Drivers/CMSIS/Include/cmsis_gcc.h **** #endif
  67:Drivers/CMSIS/Include/cmsis_gcc.h **** #ifndef   __PACKED_UNION
  68:Drivers/CMSIS/Include/cmsis_gcc.h ****   #define __PACKED_UNION                         union __attribute__((packed, aligned(1)))
  69:Drivers/CMSIS/Include/cmsis_gcc.h **** #endif
  70:Drivers/CMSIS/Include/cmsis_gcc.h **** #ifndef   __UNALIGNED_UINT32        /* deprecated */
  71:Drivers/CMSIS/Include/cmsis_gcc.h ****   #pragma GCC diagnostic push
  72:Drivers/CMSIS/Include/cmsis_gcc.h ****   #pragma GCC diagnostic ignored "-Wpacked"
  73:Drivers/CMSIS/Include/cmsis_gcc.h ****   #pragma GCC diagnostic ignored "-Wattributes"
  74:Drivers/CMSIS/Include/cmsis_gcc.h ****   struct __attribute__((packed)) T_UINT32 { uint32_t v; };
  75:Drivers/CMSIS/Include/cmsis_gcc.h ****   #pragma GCC diagnostic pop
  76:Drivers/CMSIS/Include/cmsis_gcc.h ****   #define __UNALIGNED_UINT32(x)                  (((struct T_UINT32 *)(x))->v)
  77:Drivers/CMSIS/Include/cmsis_gcc.h **** #endif
  78:Drivers/CMSIS/Include/cmsis_gcc.h **** #ifndef   __UNALIGNED_UINT16_WRITE
  79:Drivers/CMSIS/Include/cmsis_gcc.h ****   #pragma GCC diagnostic push
  80:Drivers/CMSIS/Include/cmsis_gcc.h ****   #pragma GCC diagnostic ignored "-Wpacked"
  81:Drivers/CMSIS/Include/cmsis_gcc.h ****   #pragma GCC diagnostic ignored "-Wattributes"
  82:Drivers/CMSIS/Include/cmsis_gcc.h ****   __PACKED_STRUCT T_UINT16_WRITE { uint16_t v; };
  83:Drivers/CMSIS/Include/cmsis_gcc.h ****   #pragma GCC diagnostic pop
  84:Drivers/CMSIS/Include/cmsis_gcc.h ****   #define __UNALIGNED_UINT16_WRITE(addr, val)    (void)((((struct T_UINT16_WRITE *)(void *)(addr))-
  85:Drivers/CMSIS/Include/cmsis_gcc.h **** #endif
  86:Drivers/CMSIS/Include/cmsis_gcc.h **** #ifndef   __UNALIGNED_UINT16_READ
  87:Drivers/CMSIS/Include/cmsis_gcc.h ****   #pragma GCC diagnostic push
  88:Drivers/CMSIS/Include/cmsis_gcc.h ****   #pragma GCC diagnostic ignored "-Wpacked"
  89:Drivers/CMSIS/Include/cmsis_gcc.h ****   #pragma GCC diagnostic ignored "-Wattributes"
  90:Drivers/CMSIS/Include/cmsis_gcc.h ****   __PACKED_STRUCT T_UINT16_READ { uint16_t v; };
  91:Drivers/CMSIS/Include/cmsis_gcc.h ****   #pragma GCC diagnostic pop
  92:Drivers/CMSIS/Include/cmsis_gcc.h ****   #define __UNALIGNED_UINT16_READ(addr)          (((const struct T_UINT16_READ *)(const void *)(add
  93:Drivers/CMSIS/Include/cmsis_gcc.h **** #endif
  94:Drivers/CMSIS/Include/cmsis_gcc.h **** #ifndef   __UNALIGNED_UINT32_WRITE
  95:Drivers/CMSIS/Include/cmsis_gcc.h ****   #pragma GCC diagnostic push
  96:Drivers/CMSIS/Include/cmsis_gcc.h ****   #pragma GCC diagnostic ignored "-Wpacked"
  97:Drivers/CMSIS/Include/cmsis_gcc.h ****   #pragma GCC diagnostic ignored "-Wattributes"
  98:Drivers/CMSIS/Include/cmsis_gcc.h ****   __PACKED_STRUCT T_UINT32_WRITE { uint32_t v; };
  99:Drivers/CMSIS/Include/cmsis_gcc.h ****   #pragma GCC diagnostic pop
 100:Drivers/CMSIS/Include/cmsis_gcc.h ****   #define __UNALIGNED_UINT32_WRITE(addr, val)    (void)((((struct T_UINT32_WRITE *)(void *)(addr))-
 101:Drivers/CMSIS/Include/cmsis_gcc.h **** #endif
 102:Drivers/CMSIS/Include/cmsis_gcc.h **** #ifndef   __UNALIGNED_UINT32_READ
 103:Drivers/CMSIS/Include/cmsis_gcc.h ****   #pragma GCC diagnostic push
 104:Drivers/CMSIS/Include/cmsis_gcc.h ****   #pragma GCC diagnostic ignored "-Wpacked"
 105:Drivers/CMSIS/Include/cmsis_gcc.h ****   #pragma GCC diagnostic ignored "-Wattributes"
 106:Drivers/CMSIS/Include/cmsis_gcc.h ****   __PACKED_STRUCT T_UINT32_READ { uint32_t v; };
 107:Drivers/CMSIS/Include/cmsis_gcc.h ****   #pragma GCC diagnostic pop
 108:Drivers/CMSIS/Include/cmsis_gcc.h ****   #define __UNALIGNED_UINT32_READ(addr)          (((const struct T_UINT32_READ *)(const void *)(add
ARM GAS  C:\Users\Joshua\AppData\Local\Temp\cchJYxqO.s 			page 32


 109:Drivers/CMSIS/Include/cmsis_gcc.h **** #endif
 110:Drivers/CMSIS/Include/cmsis_gcc.h **** #ifndef   __ALIGNED
 111:Drivers/CMSIS/Include/cmsis_gcc.h ****   #define __ALIGNED(x)                           __attribute__((aligned(x)))
 112:Drivers/CMSIS/Include/cmsis_gcc.h **** #endif
 113:Drivers/CMSIS/Include/cmsis_gcc.h **** #ifndef   __RESTRICT
 114:Drivers/CMSIS/Include/cmsis_gcc.h ****   #define __RESTRICT                             __restrict
 115:Drivers/CMSIS/Include/cmsis_gcc.h **** #endif
 116:Drivers/CMSIS/Include/cmsis_gcc.h **** #ifndef   __COMPILER_BARRIER
 117:Drivers/CMSIS/Include/cmsis_gcc.h ****   #define __COMPILER_BARRIER()                   __ASM volatile("":::"memory")
 118:Drivers/CMSIS/Include/cmsis_gcc.h **** #endif
 119:Drivers/CMSIS/Include/cmsis_gcc.h **** 
 120:Drivers/CMSIS/Include/cmsis_gcc.h **** /* #########################  Startup and Lowlevel Init  ######################## */
 121:Drivers/CMSIS/Include/cmsis_gcc.h **** 
 122:Drivers/CMSIS/Include/cmsis_gcc.h **** #ifndef __PROGRAM_START
 123:Drivers/CMSIS/Include/cmsis_gcc.h **** 
 124:Drivers/CMSIS/Include/cmsis_gcc.h **** /**
 125:Drivers/CMSIS/Include/cmsis_gcc.h ****   \brief   Initializes data and bss sections
 126:Drivers/CMSIS/Include/cmsis_gcc.h ****   \details This default implementations initialized all data and additional bss
 127:Drivers/CMSIS/Include/cmsis_gcc.h ****            sections relying on .copy.table and .zero.table specified properly
 128:Drivers/CMSIS/Include/cmsis_gcc.h ****            in the used linker script.
 129:Drivers/CMSIS/Include/cmsis_gcc.h ****   
 130:Drivers/CMSIS/Include/cmsis_gcc.h ****  */
 131:Drivers/CMSIS/Include/cmsis_gcc.h **** __STATIC_FORCEINLINE __NO_RETURN void __cmsis_start(void)
 132:Drivers/CMSIS/Include/cmsis_gcc.h **** {
 133:Drivers/CMSIS/Include/cmsis_gcc.h ****   extern void _start(void) __NO_RETURN;
 134:Drivers/CMSIS/Include/cmsis_gcc.h ****   
 135:Drivers/CMSIS/Include/cmsis_gcc.h ****   typedef struct {
 136:Drivers/CMSIS/Include/cmsis_gcc.h ****     uint32_t const* src;
 137:Drivers/CMSIS/Include/cmsis_gcc.h ****     uint32_t* dest;
 138:Drivers/CMSIS/Include/cmsis_gcc.h ****     uint32_t  wlen;
 139:Drivers/CMSIS/Include/cmsis_gcc.h ****   } __copy_table_t;
 140:Drivers/CMSIS/Include/cmsis_gcc.h ****   
 141:Drivers/CMSIS/Include/cmsis_gcc.h ****   typedef struct {
 142:Drivers/CMSIS/Include/cmsis_gcc.h ****     uint32_t* dest;
 143:Drivers/CMSIS/Include/cmsis_gcc.h ****     uint32_t  wlen;
 144:Drivers/CMSIS/Include/cmsis_gcc.h ****   } __zero_table_t;
 145:Drivers/CMSIS/Include/cmsis_gcc.h ****   
 146:Drivers/CMSIS/Include/cmsis_gcc.h ****   extern const __copy_table_t __copy_table_start__;
 147:Drivers/CMSIS/Include/cmsis_gcc.h ****   extern const __copy_table_t __copy_table_end__;
 148:Drivers/CMSIS/Include/cmsis_gcc.h ****   extern const __zero_table_t __zero_table_start__;
 149:Drivers/CMSIS/Include/cmsis_gcc.h ****   extern const __zero_table_t __zero_table_end__;
 150:Drivers/CMSIS/Include/cmsis_gcc.h **** 
 151:Drivers/CMSIS/Include/cmsis_gcc.h ****   for (__copy_table_t const* pTable = &__copy_table_start__; pTable < &__copy_table_end__; ++pTable
 152:Drivers/CMSIS/Include/cmsis_gcc.h ****     for(uint32_t i=0u; i<pTable->wlen; ++i) {
 153:Drivers/CMSIS/Include/cmsis_gcc.h ****       pTable->dest[i] = pTable->src[i];
 154:Drivers/CMSIS/Include/cmsis_gcc.h ****     }
 155:Drivers/CMSIS/Include/cmsis_gcc.h ****   }
 156:Drivers/CMSIS/Include/cmsis_gcc.h ****  
 157:Drivers/CMSIS/Include/cmsis_gcc.h ****   for (__zero_table_t const* pTable = &__zero_table_start__; pTable < &__zero_table_end__; ++pTable
 158:Drivers/CMSIS/Include/cmsis_gcc.h ****     for(uint32_t i=0u; i<pTable->wlen; ++i) {
 159:Drivers/CMSIS/Include/cmsis_gcc.h ****       pTable->dest[i] = 0u;
 160:Drivers/CMSIS/Include/cmsis_gcc.h ****     }
 161:Drivers/CMSIS/Include/cmsis_gcc.h ****   }
 162:Drivers/CMSIS/Include/cmsis_gcc.h ****  
 163:Drivers/CMSIS/Include/cmsis_gcc.h ****   _start();
 164:Drivers/CMSIS/Include/cmsis_gcc.h **** }
 165:Drivers/CMSIS/Include/cmsis_gcc.h ****   
ARM GAS  C:\Users\Joshua\AppData\Local\Temp\cchJYxqO.s 			page 33


 166:Drivers/CMSIS/Include/cmsis_gcc.h **** #define __PROGRAM_START           __cmsis_start
 167:Drivers/CMSIS/Include/cmsis_gcc.h **** #endif
 168:Drivers/CMSIS/Include/cmsis_gcc.h **** 
 169:Drivers/CMSIS/Include/cmsis_gcc.h **** #ifndef __INITIAL_SP
 170:Drivers/CMSIS/Include/cmsis_gcc.h **** #define __INITIAL_SP              __StackTop
 171:Drivers/CMSIS/Include/cmsis_gcc.h **** #endif
 172:Drivers/CMSIS/Include/cmsis_gcc.h **** 
 173:Drivers/CMSIS/Include/cmsis_gcc.h **** #ifndef __STACK_LIMIT
 174:Drivers/CMSIS/Include/cmsis_gcc.h **** #define __STACK_LIMIT             __StackLimit
 175:Drivers/CMSIS/Include/cmsis_gcc.h **** #endif
 176:Drivers/CMSIS/Include/cmsis_gcc.h **** 
 177:Drivers/CMSIS/Include/cmsis_gcc.h **** #ifndef __VECTOR_TABLE
 178:Drivers/CMSIS/Include/cmsis_gcc.h **** #define __VECTOR_TABLE            __Vectors
 179:Drivers/CMSIS/Include/cmsis_gcc.h **** #endif
 180:Drivers/CMSIS/Include/cmsis_gcc.h **** 
 181:Drivers/CMSIS/Include/cmsis_gcc.h **** #ifndef __VECTOR_TABLE_ATTRIBUTE
 182:Drivers/CMSIS/Include/cmsis_gcc.h **** #define __VECTOR_TABLE_ATTRIBUTE  __attribute((used, section(".vectors")))
 183:Drivers/CMSIS/Include/cmsis_gcc.h **** #endif
 184:Drivers/CMSIS/Include/cmsis_gcc.h **** 
 185:Drivers/CMSIS/Include/cmsis_gcc.h **** /* ###########################  Core Function Access  ########################### */
 186:Drivers/CMSIS/Include/cmsis_gcc.h **** /** \ingroup  CMSIS_Core_FunctionInterface
 187:Drivers/CMSIS/Include/cmsis_gcc.h ****     \defgroup CMSIS_Core_RegAccFunctions CMSIS Core Register Access Functions
 188:Drivers/CMSIS/Include/cmsis_gcc.h ****   @{
 189:Drivers/CMSIS/Include/cmsis_gcc.h ****  */
 190:Drivers/CMSIS/Include/cmsis_gcc.h **** 
 191:Drivers/CMSIS/Include/cmsis_gcc.h **** /**
 192:Drivers/CMSIS/Include/cmsis_gcc.h ****   \brief   Enable IRQ Interrupts
 193:Drivers/CMSIS/Include/cmsis_gcc.h ****   \details Enables IRQ interrupts by clearing the I-bit in the CPSR.
 194:Drivers/CMSIS/Include/cmsis_gcc.h ****            Can only be executed in Privileged modes.
 195:Drivers/CMSIS/Include/cmsis_gcc.h ****  */
 196:Drivers/CMSIS/Include/cmsis_gcc.h **** __STATIC_FORCEINLINE void __enable_irq(void)
 197:Drivers/CMSIS/Include/cmsis_gcc.h **** {
 198:Drivers/CMSIS/Include/cmsis_gcc.h ****   __ASM volatile ("cpsie i" : : : "memory");
 199:Drivers/CMSIS/Include/cmsis_gcc.h **** }
 200:Drivers/CMSIS/Include/cmsis_gcc.h **** 
 201:Drivers/CMSIS/Include/cmsis_gcc.h **** 
 202:Drivers/CMSIS/Include/cmsis_gcc.h **** /**
 203:Drivers/CMSIS/Include/cmsis_gcc.h ****   \brief   Disable IRQ Interrupts
 204:Drivers/CMSIS/Include/cmsis_gcc.h ****   \details Disables IRQ interrupts by setting the I-bit in the CPSR.
 205:Drivers/CMSIS/Include/cmsis_gcc.h ****            Can only be executed in Privileged modes.
 206:Drivers/CMSIS/Include/cmsis_gcc.h ****  */
 207:Drivers/CMSIS/Include/cmsis_gcc.h **** __STATIC_FORCEINLINE void __disable_irq(void)
 1003              		.loc 2 207 27 view .LVU255
 1004              	.LBB8:
 208:Drivers/CMSIS/Include/cmsis_gcc.h **** {
 209:Drivers/CMSIS/Include/cmsis_gcc.h ****   __ASM volatile ("cpsid i" : : : "memory");
 1005              		.loc 2 209 3 view .LVU256
 1006              		.syntax unified
 1007              	@ 209 "Drivers/CMSIS/Include/cmsis_gcc.h" 1
 1008 0000 72B6     		cpsid i
 1009              	@ 0 "" 2
 1010              		.thumb
 1011              		.syntax unified
 1012              	.L77:
 1013              	.LBE8:
 1014              	.LBE7:
 511:Core/Src/main.c ****   while (1)
ARM GAS  C:\Users\Joshua\AppData\Local\Temp\cchJYxqO.s 			page 34


 1015              		.loc 1 511 3 discriminator 1 view .LVU257
 512:Core/Src/main.c ****   {
 513:Core/Src/main.c ****   }
 1016              		.loc 1 513 3 discriminator 1 view .LVU258
 511:Core/Src/main.c ****   while (1)
 1017              		.loc 1 511 9 discriminator 1 view .LVU259
 1018 0002 FEE7     		b	.L77
 1019              		.cfi_endproc
 1020              	.LFE962:
 1022              		.section	.text.SystemClock_Config,"ax",%progbits
 1023              		.align	1
 1024              		.global	SystemClock_Config
 1025              		.syntax unified
 1026              		.thumb
 1027              		.thumb_func
 1029              	SystemClock_Config:
 1030              	.LFB958:
 275:Core/Src/main.c ****   RCC_OscInitTypeDef RCC_OscInitStruct = {0};
 1031              		.loc 1 275 1 view -0
 1032              		.cfi_startproc
 1033              		@ args = 0, pretend = 0, frame = 104
 1034              		@ frame_needed = 0, uses_anonymous_args = 0
 1035 0000 30B5     		push	{r4, r5, lr}
 1036              		.cfi_def_cfa_offset 12
 1037              		.cfi_offset 4, -12
 1038              		.cfi_offset 5, -8
 1039              		.cfi_offset 14, -4
 1040 0002 9BB0     		sub	sp, sp, #108
 1041              		.cfi_def_cfa_offset 120
 276:Core/Src/main.c ****   RCC_ClkInitTypeDef RCC_ClkInitStruct = {0};
 1042              		.loc 1 276 3 view .LVU261
 276:Core/Src/main.c ****   RCC_ClkInitTypeDef RCC_ClkInitStruct = {0};
 1043              		.loc 1 276 22 is_stmt 0 view .LVU262
 1044 0004 4822     		movs	r2, #72
 1045 0006 0021     		movs	r1, #0
 1046 0008 08A8     		add	r0, sp, #32
 1047 000a FFF7FEFF 		bl	memset
 1048              	.LVL82:
 277:Core/Src/main.c **** 
 1049              		.loc 1 277 3 is_stmt 1 view .LVU263
 277:Core/Src/main.c **** 
 1050              		.loc 1 277 22 is_stmt 0 view .LVU264
 1051 000e 0024     		movs	r4, #0
 1052 0010 0194     		str	r4, [sp, #4]
 1053 0012 0294     		str	r4, [sp, #8]
 1054 0014 0394     		str	r4, [sp, #12]
 1055 0016 0494     		str	r4, [sp, #16]
 1056 0018 0594     		str	r4, [sp, #20]
 1057 001a 0694     		str	r4, [sp, #24]
 1058 001c 0794     		str	r4, [sp, #28]
 281:Core/Src/main.c **** 
 1059              		.loc 1 281 3 is_stmt 1 view .LVU265
 1060 001e 4FF0B045 		mov	r5, #1476395008
 1061 0022 EB68     		ldr	r3, [r5, #12]
 1062 0024 23F07003 		bic	r3, r3, #112
 1063 0028 EB60     		str	r3, [r5, #12]
 285:Core/Src/main.c **** 
ARM GAS  C:\Users\Joshua\AppData\Local\Temp\cchJYxqO.s 			page 35


 1064              		.loc 1 285 3 view .LVU266
 1065 002a EB68     		ldr	r3, [r5, #12]
 1066 002c 23F00303 		bic	r3, r3, #3
 1067 0030 43F00103 		orr	r3, r3, #1
 1068 0034 EB60     		str	r3, [r5, #12]
 289:Core/Src/main.c ****   __HAL_RCC_LSEDRIVE_CONFIG(RCC_LSEDRIVE_LOW);
 1069              		.loc 1 289 3 view .LVU267
 1070 0036 FFF7FEFF 		bl	HAL_PWR_EnableBkUpAccess
 1071              	.LVL83:
 290:Core/Src/main.c **** 
 1072              		.loc 1 290 3 view .LVU268
 1073              	.LBB9:
 1074              	.LBI9:
 1075              		.file 3 "Drivers/STM32WBxx_HAL_Driver/Inc/stm32wbxx_ll_rcc.h"
   1:Drivers/STM32WBxx_HAL_Driver/Inc/stm32wbxx_ll_rcc.h **** /**
   2:Drivers/STM32WBxx_HAL_Driver/Inc/stm32wbxx_ll_rcc.h ****   ******************************************************************************
   3:Drivers/STM32WBxx_HAL_Driver/Inc/stm32wbxx_ll_rcc.h ****   * @file    stm32wbxx_ll_rcc.h
   4:Drivers/STM32WBxx_HAL_Driver/Inc/stm32wbxx_ll_rcc.h ****   * @author  MCD Application Team
   5:Drivers/STM32WBxx_HAL_Driver/Inc/stm32wbxx_ll_rcc.h ****   * @brief   Header file of RCC LL module.
   6:Drivers/STM32WBxx_HAL_Driver/Inc/stm32wbxx_ll_rcc.h ****   ******************************************************************************
   7:Drivers/STM32WBxx_HAL_Driver/Inc/stm32wbxx_ll_rcc.h ****   * @attention
   8:Drivers/STM32WBxx_HAL_Driver/Inc/stm32wbxx_ll_rcc.h ****   *
   9:Drivers/STM32WBxx_HAL_Driver/Inc/stm32wbxx_ll_rcc.h ****   * Copyright (c) 2019 STMicroelectronics.
  10:Drivers/STM32WBxx_HAL_Driver/Inc/stm32wbxx_ll_rcc.h ****   * All rights reserved.
  11:Drivers/STM32WBxx_HAL_Driver/Inc/stm32wbxx_ll_rcc.h ****   *
  12:Drivers/STM32WBxx_HAL_Driver/Inc/stm32wbxx_ll_rcc.h ****   * This software is licensed under terms that can be found in the LICENSE file
  13:Drivers/STM32WBxx_HAL_Driver/Inc/stm32wbxx_ll_rcc.h ****   * in the root directory of this software component.
  14:Drivers/STM32WBxx_HAL_Driver/Inc/stm32wbxx_ll_rcc.h ****   * If no LICENSE file comes with this software, it is provided AS-IS.
  15:Drivers/STM32WBxx_HAL_Driver/Inc/stm32wbxx_ll_rcc.h ****   *
  16:Drivers/STM32WBxx_HAL_Driver/Inc/stm32wbxx_ll_rcc.h ****   ******************************************************************************
  17:Drivers/STM32WBxx_HAL_Driver/Inc/stm32wbxx_ll_rcc.h ****   */
  18:Drivers/STM32WBxx_HAL_Driver/Inc/stm32wbxx_ll_rcc.h **** 
  19:Drivers/STM32WBxx_HAL_Driver/Inc/stm32wbxx_ll_rcc.h **** /* Define to prevent recursive inclusion -------------------------------------*/
  20:Drivers/STM32WBxx_HAL_Driver/Inc/stm32wbxx_ll_rcc.h **** #ifndef STM32WBxx_LL_RCC_H
  21:Drivers/STM32WBxx_HAL_Driver/Inc/stm32wbxx_ll_rcc.h **** #define STM32WBxx_LL_RCC_H
  22:Drivers/STM32WBxx_HAL_Driver/Inc/stm32wbxx_ll_rcc.h **** 
  23:Drivers/STM32WBxx_HAL_Driver/Inc/stm32wbxx_ll_rcc.h **** #ifdef __cplusplus
  24:Drivers/STM32WBxx_HAL_Driver/Inc/stm32wbxx_ll_rcc.h **** extern "C" {
  25:Drivers/STM32WBxx_HAL_Driver/Inc/stm32wbxx_ll_rcc.h **** #endif
  26:Drivers/STM32WBxx_HAL_Driver/Inc/stm32wbxx_ll_rcc.h **** 
  27:Drivers/STM32WBxx_HAL_Driver/Inc/stm32wbxx_ll_rcc.h **** /* Includes ------------------------------------------------------------------*/
  28:Drivers/STM32WBxx_HAL_Driver/Inc/stm32wbxx_ll_rcc.h **** #include "stm32wbxx.h"
  29:Drivers/STM32WBxx_HAL_Driver/Inc/stm32wbxx_ll_rcc.h **** 
  30:Drivers/STM32WBxx_HAL_Driver/Inc/stm32wbxx_ll_rcc.h **** /** @addtogroup STM32WBxx_LL_Driver
  31:Drivers/STM32WBxx_HAL_Driver/Inc/stm32wbxx_ll_rcc.h ****   * @{
  32:Drivers/STM32WBxx_HAL_Driver/Inc/stm32wbxx_ll_rcc.h ****   */
  33:Drivers/STM32WBxx_HAL_Driver/Inc/stm32wbxx_ll_rcc.h **** 
  34:Drivers/STM32WBxx_HAL_Driver/Inc/stm32wbxx_ll_rcc.h **** #if defined(RCC)
  35:Drivers/STM32WBxx_HAL_Driver/Inc/stm32wbxx_ll_rcc.h **** 
  36:Drivers/STM32WBxx_HAL_Driver/Inc/stm32wbxx_ll_rcc.h **** /** @defgroup RCC_LL RCC
  37:Drivers/STM32WBxx_HAL_Driver/Inc/stm32wbxx_ll_rcc.h ****   * @{
  38:Drivers/STM32WBxx_HAL_Driver/Inc/stm32wbxx_ll_rcc.h ****   */
  39:Drivers/STM32WBxx_HAL_Driver/Inc/stm32wbxx_ll_rcc.h **** 
  40:Drivers/STM32WBxx_HAL_Driver/Inc/stm32wbxx_ll_rcc.h **** /* Private types -------------------------------------------------------------*/
  41:Drivers/STM32WBxx_HAL_Driver/Inc/stm32wbxx_ll_rcc.h **** /* Private variables ---------------------------------------------------------*/
  42:Drivers/STM32WBxx_HAL_Driver/Inc/stm32wbxx_ll_rcc.h **** /** @defgroup RCC_LL_Private_Variables RCC Private Variables
  43:Drivers/STM32WBxx_HAL_Driver/Inc/stm32wbxx_ll_rcc.h ****   * @{
ARM GAS  C:\Users\Joshua\AppData\Local\Temp\cchJYxqO.s 			page 36


  44:Drivers/STM32WBxx_HAL_Driver/Inc/stm32wbxx_ll_rcc.h ****   */
  45:Drivers/STM32WBxx_HAL_Driver/Inc/stm32wbxx_ll_rcc.h **** 
  46:Drivers/STM32WBxx_HAL_Driver/Inc/stm32wbxx_ll_rcc.h **** #define HSE_CONTROL_UNLOCK_KEY 0xCAFECAFEU
  47:Drivers/STM32WBxx_HAL_Driver/Inc/stm32wbxx_ll_rcc.h **** 
  48:Drivers/STM32WBxx_HAL_Driver/Inc/stm32wbxx_ll_rcc.h **** /**
  49:Drivers/STM32WBxx_HAL_Driver/Inc/stm32wbxx_ll_rcc.h ****   * @}
  50:Drivers/STM32WBxx_HAL_Driver/Inc/stm32wbxx_ll_rcc.h ****   */
  51:Drivers/STM32WBxx_HAL_Driver/Inc/stm32wbxx_ll_rcc.h **** 
  52:Drivers/STM32WBxx_HAL_Driver/Inc/stm32wbxx_ll_rcc.h **** /* Private constants ---------------------------------------------------------*/
  53:Drivers/STM32WBxx_HAL_Driver/Inc/stm32wbxx_ll_rcc.h **** /* Private macros ------------------------------------------------------------*/
  54:Drivers/STM32WBxx_HAL_Driver/Inc/stm32wbxx_ll_rcc.h **** #if defined(USE_FULL_LL_DRIVER)
  55:Drivers/STM32WBxx_HAL_Driver/Inc/stm32wbxx_ll_rcc.h **** /** @defgroup RCC_LL_Private_Macros RCC Private Macros
  56:Drivers/STM32WBxx_HAL_Driver/Inc/stm32wbxx_ll_rcc.h ****   * @{
  57:Drivers/STM32WBxx_HAL_Driver/Inc/stm32wbxx_ll_rcc.h ****   */
  58:Drivers/STM32WBxx_HAL_Driver/Inc/stm32wbxx_ll_rcc.h **** /**
  59:Drivers/STM32WBxx_HAL_Driver/Inc/stm32wbxx_ll_rcc.h ****   * @}
  60:Drivers/STM32WBxx_HAL_Driver/Inc/stm32wbxx_ll_rcc.h ****   */
  61:Drivers/STM32WBxx_HAL_Driver/Inc/stm32wbxx_ll_rcc.h **** #endif /* USE_FULL_LL_DRIVER */
  62:Drivers/STM32WBxx_HAL_Driver/Inc/stm32wbxx_ll_rcc.h **** 
  63:Drivers/STM32WBxx_HAL_Driver/Inc/stm32wbxx_ll_rcc.h **** /* Exported types ------------------------------------------------------------*/
  64:Drivers/STM32WBxx_HAL_Driver/Inc/stm32wbxx_ll_rcc.h **** #if defined(USE_FULL_LL_DRIVER)
  65:Drivers/STM32WBxx_HAL_Driver/Inc/stm32wbxx_ll_rcc.h **** /** @defgroup RCC_LL_Exported_Types RCC Exported Types
  66:Drivers/STM32WBxx_HAL_Driver/Inc/stm32wbxx_ll_rcc.h ****   * @{
  67:Drivers/STM32WBxx_HAL_Driver/Inc/stm32wbxx_ll_rcc.h ****   */
  68:Drivers/STM32WBxx_HAL_Driver/Inc/stm32wbxx_ll_rcc.h **** 
  69:Drivers/STM32WBxx_HAL_Driver/Inc/stm32wbxx_ll_rcc.h **** /** @defgroup LL_ES_CLOCK_FREQ Clocks Frequency Structure
  70:Drivers/STM32WBxx_HAL_Driver/Inc/stm32wbxx_ll_rcc.h ****   * @{
  71:Drivers/STM32WBxx_HAL_Driver/Inc/stm32wbxx_ll_rcc.h ****   */
  72:Drivers/STM32WBxx_HAL_Driver/Inc/stm32wbxx_ll_rcc.h **** 
  73:Drivers/STM32WBxx_HAL_Driver/Inc/stm32wbxx_ll_rcc.h **** /**
  74:Drivers/STM32WBxx_HAL_Driver/Inc/stm32wbxx_ll_rcc.h ****   * @brief  RCC Clocks Frequency Structure
  75:Drivers/STM32WBxx_HAL_Driver/Inc/stm32wbxx_ll_rcc.h ****   */
  76:Drivers/STM32WBxx_HAL_Driver/Inc/stm32wbxx_ll_rcc.h **** typedef struct
  77:Drivers/STM32WBxx_HAL_Driver/Inc/stm32wbxx_ll_rcc.h **** {
  78:Drivers/STM32WBxx_HAL_Driver/Inc/stm32wbxx_ll_rcc.h ****   uint32_t SYSCLK_Frequency;         /*!< SYSCLK clock frequency */
  79:Drivers/STM32WBxx_HAL_Driver/Inc/stm32wbxx_ll_rcc.h ****   uint32_t HCLK1_Frequency;          /*!< HCLK1 clock frequency  */
  80:Drivers/STM32WBxx_HAL_Driver/Inc/stm32wbxx_ll_rcc.h ****   uint32_t HCLK2_Frequency;          /*!< HCLK2 clock frequency  */
  81:Drivers/STM32WBxx_HAL_Driver/Inc/stm32wbxx_ll_rcc.h ****   uint32_t HCLK4_Frequency;          /*!< HCLK4 clock frequency  */
  82:Drivers/STM32WBxx_HAL_Driver/Inc/stm32wbxx_ll_rcc.h ****   uint32_t HCLK5_Frequency;          /*!< HCLK5 clock frequency  */
  83:Drivers/STM32WBxx_HAL_Driver/Inc/stm32wbxx_ll_rcc.h ****   uint32_t PCLK1_Frequency;          /*!< PCLK1 clock frequency  */
  84:Drivers/STM32WBxx_HAL_Driver/Inc/stm32wbxx_ll_rcc.h ****   uint32_t PCLK2_Frequency;          /*!< PCLK2 clock frequency  */
  85:Drivers/STM32WBxx_HAL_Driver/Inc/stm32wbxx_ll_rcc.h **** } LL_RCC_ClocksTypeDef;
  86:Drivers/STM32WBxx_HAL_Driver/Inc/stm32wbxx_ll_rcc.h **** 
  87:Drivers/STM32WBxx_HAL_Driver/Inc/stm32wbxx_ll_rcc.h **** /**
  88:Drivers/STM32WBxx_HAL_Driver/Inc/stm32wbxx_ll_rcc.h ****   * @}
  89:Drivers/STM32WBxx_HAL_Driver/Inc/stm32wbxx_ll_rcc.h ****   */
  90:Drivers/STM32WBxx_HAL_Driver/Inc/stm32wbxx_ll_rcc.h **** 
  91:Drivers/STM32WBxx_HAL_Driver/Inc/stm32wbxx_ll_rcc.h **** /**
  92:Drivers/STM32WBxx_HAL_Driver/Inc/stm32wbxx_ll_rcc.h ****   * @}
  93:Drivers/STM32WBxx_HAL_Driver/Inc/stm32wbxx_ll_rcc.h ****   */
  94:Drivers/STM32WBxx_HAL_Driver/Inc/stm32wbxx_ll_rcc.h **** #endif /* USE_FULL_LL_DRIVER */
  95:Drivers/STM32WBxx_HAL_Driver/Inc/stm32wbxx_ll_rcc.h **** 
  96:Drivers/STM32WBxx_HAL_Driver/Inc/stm32wbxx_ll_rcc.h **** /* Exported constants --------------------------------------------------------*/
  97:Drivers/STM32WBxx_HAL_Driver/Inc/stm32wbxx_ll_rcc.h **** /** @defgroup RCC_LL_Exported_Constants RCC Exported Constants
  98:Drivers/STM32WBxx_HAL_Driver/Inc/stm32wbxx_ll_rcc.h ****   * @{
  99:Drivers/STM32WBxx_HAL_Driver/Inc/stm32wbxx_ll_rcc.h ****   */
 100:Drivers/STM32WBxx_HAL_Driver/Inc/stm32wbxx_ll_rcc.h **** 
ARM GAS  C:\Users\Joshua\AppData\Local\Temp\cchJYxqO.s 			page 37


 101:Drivers/STM32WBxx_HAL_Driver/Inc/stm32wbxx_ll_rcc.h **** /** @defgroup RCC_LL_EC_OSC_VALUES Oscillator Values adaptation
 102:Drivers/STM32WBxx_HAL_Driver/Inc/stm32wbxx_ll_rcc.h ****   * @brief    Defines used to adapt values of different oscillators
 103:Drivers/STM32WBxx_HAL_Driver/Inc/stm32wbxx_ll_rcc.h ****   * @note     These values could be modified in the user environment according to
 104:Drivers/STM32WBxx_HAL_Driver/Inc/stm32wbxx_ll_rcc.h ****   *           HW set-up.
 105:Drivers/STM32WBxx_HAL_Driver/Inc/stm32wbxx_ll_rcc.h ****   * @{
 106:Drivers/STM32WBxx_HAL_Driver/Inc/stm32wbxx_ll_rcc.h ****   */
 107:Drivers/STM32WBxx_HAL_Driver/Inc/stm32wbxx_ll_rcc.h **** #if !defined  (HSE_VALUE)
 108:Drivers/STM32WBxx_HAL_Driver/Inc/stm32wbxx_ll_rcc.h **** #define HSE_VALUE    32000000U  /*!< Value of the HSE oscillator in Hz */
 109:Drivers/STM32WBxx_HAL_Driver/Inc/stm32wbxx_ll_rcc.h **** #endif /* !HSE_VALUE */
 110:Drivers/STM32WBxx_HAL_Driver/Inc/stm32wbxx_ll_rcc.h **** 
 111:Drivers/STM32WBxx_HAL_Driver/Inc/stm32wbxx_ll_rcc.h **** #if !defined  (HSI_VALUE)
 112:Drivers/STM32WBxx_HAL_Driver/Inc/stm32wbxx_ll_rcc.h **** #define HSI_VALUE    16000000U  /*!< Value of the HSI oscillator in Hz */
 113:Drivers/STM32WBxx_HAL_Driver/Inc/stm32wbxx_ll_rcc.h **** #endif /* !HSI_VALUE */
 114:Drivers/STM32WBxx_HAL_Driver/Inc/stm32wbxx_ll_rcc.h **** 
 115:Drivers/STM32WBxx_HAL_Driver/Inc/stm32wbxx_ll_rcc.h **** #if !defined  (LSE_VALUE)
 116:Drivers/STM32WBxx_HAL_Driver/Inc/stm32wbxx_ll_rcc.h **** #if defined(STM32WB5Mxx)
 117:Drivers/STM32WBxx_HAL_Driver/Inc/stm32wbxx_ll_rcc.h **** #define LSE_VALUE    32774U     /*!< Value of the LSE oscillator in Hz */
 118:Drivers/STM32WBxx_HAL_Driver/Inc/stm32wbxx_ll_rcc.h **** #else
 119:Drivers/STM32WBxx_HAL_Driver/Inc/stm32wbxx_ll_rcc.h **** #define LSE_VALUE    32768U     /*!< Value of the LSE oscillator in Hz */
 120:Drivers/STM32WBxx_HAL_Driver/Inc/stm32wbxx_ll_rcc.h **** #endif /* STM32WB5Mxx */
 121:Drivers/STM32WBxx_HAL_Driver/Inc/stm32wbxx_ll_rcc.h **** #endif /* !LSE_VALUE */
 122:Drivers/STM32WBxx_HAL_Driver/Inc/stm32wbxx_ll_rcc.h **** 
 123:Drivers/STM32WBxx_HAL_Driver/Inc/stm32wbxx_ll_rcc.h **** #if !defined  (LSI_VALUE)
 124:Drivers/STM32WBxx_HAL_Driver/Inc/stm32wbxx_ll_rcc.h **** #define LSI_VALUE    32000U     /*!< Value of the LSI oscillator in Hz */
 125:Drivers/STM32WBxx_HAL_Driver/Inc/stm32wbxx_ll_rcc.h **** #endif /* !LSI_VALUE */
 126:Drivers/STM32WBxx_HAL_Driver/Inc/stm32wbxx_ll_rcc.h **** 
 127:Drivers/STM32WBxx_HAL_Driver/Inc/stm32wbxx_ll_rcc.h **** #if defined(RCC_HSI48_SUPPORT)
 128:Drivers/STM32WBxx_HAL_Driver/Inc/stm32wbxx_ll_rcc.h **** #if !defined  (HSI48_VALUE)
 129:Drivers/STM32WBxx_HAL_Driver/Inc/stm32wbxx_ll_rcc.h **** #define HSI48_VALUE  48000000U  /*!< Value of the HSI48 oscillator in Hz */
 130:Drivers/STM32WBxx_HAL_Driver/Inc/stm32wbxx_ll_rcc.h **** #endif /* !HSI48_VALUE */
 131:Drivers/STM32WBxx_HAL_Driver/Inc/stm32wbxx_ll_rcc.h **** #endif /* RCC_HSI48_SUPPORT */
 132:Drivers/STM32WBxx_HAL_Driver/Inc/stm32wbxx_ll_rcc.h **** 
 133:Drivers/STM32WBxx_HAL_Driver/Inc/stm32wbxx_ll_rcc.h **** /**
 134:Drivers/STM32WBxx_HAL_Driver/Inc/stm32wbxx_ll_rcc.h ****   * @}
 135:Drivers/STM32WBxx_HAL_Driver/Inc/stm32wbxx_ll_rcc.h ****   */
 136:Drivers/STM32WBxx_HAL_Driver/Inc/stm32wbxx_ll_rcc.h **** 
 137:Drivers/STM32WBxx_HAL_Driver/Inc/stm32wbxx_ll_rcc.h **** /** @defgroup RCC_LL_EC_CLEAR_FLAG Clear Flags Defines
 138:Drivers/STM32WBxx_HAL_Driver/Inc/stm32wbxx_ll_rcc.h ****   * @brief    Flags defines which can be used with LL_RCC_WriteReg function
 139:Drivers/STM32WBxx_HAL_Driver/Inc/stm32wbxx_ll_rcc.h ****   * @{
 140:Drivers/STM32WBxx_HAL_Driver/Inc/stm32wbxx_ll_rcc.h ****   */
 141:Drivers/STM32WBxx_HAL_Driver/Inc/stm32wbxx_ll_rcc.h **** #define LL_RCC_CICR_LSI1RDYC               RCC_CICR_LSI1RDYC    /*!< LSI1 Ready Interrupt Clear    
 142:Drivers/STM32WBxx_HAL_Driver/Inc/stm32wbxx_ll_rcc.h **** #define LL_RCC_CICR_LSI2RDYC               RCC_CICR_LSI2RDYC    /*!< LSI1 Ready Interrupt Clear    
 143:Drivers/STM32WBxx_HAL_Driver/Inc/stm32wbxx_ll_rcc.h **** #define LL_RCC_CICR_LSERDYC                RCC_CICR_LSERDYC     /*!< LSE Ready Interrupt Clear     
 144:Drivers/STM32WBxx_HAL_Driver/Inc/stm32wbxx_ll_rcc.h **** #define LL_RCC_CICR_MSIRDYC                RCC_CICR_MSIRDYC     /*!< MSI Ready Interrupt Clear     
 145:Drivers/STM32WBxx_HAL_Driver/Inc/stm32wbxx_ll_rcc.h **** #define LL_RCC_CICR_HSIRDYC                RCC_CICR_HSIRDYC     /*!< HSI Ready Interrupt Clear     
 146:Drivers/STM32WBxx_HAL_Driver/Inc/stm32wbxx_ll_rcc.h **** #define LL_RCC_CICR_HSERDYC                RCC_CICR_HSERDYC     /*!< HSE Ready Interrupt Clear     
 147:Drivers/STM32WBxx_HAL_Driver/Inc/stm32wbxx_ll_rcc.h **** #define LL_RCC_CICR_PLLRDYC                RCC_CICR_PLLRDYC     /*!< PLL Ready Interrupt Clear     
 148:Drivers/STM32WBxx_HAL_Driver/Inc/stm32wbxx_ll_rcc.h **** #if defined(RCC_HSI48_SUPPORT)
 149:Drivers/STM32WBxx_HAL_Driver/Inc/stm32wbxx_ll_rcc.h **** #define LL_RCC_CICR_HSI48RDYC              RCC_CICR_HSI48RDYC   /*!< HSI48 Ready Interrupt Clear   
 150:Drivers/STM32WBxx_HAL_Driver/Inc/stm32wbxx_ll_rcc.h **** #endif /* RCC_HSI48_SUPPORT */
 151:Drivers/STM32WBxx_HAL_Driver/Inc/stm32wbxx_ll_rcc.h **** #if defined(SAI1)
 152:Drivers/STM32WBxx_HAL_Driver/Inc/stm32wbxx_ll_rcc.h **** #define LL_RCC_CICR_PLLSAI1RDYC            RCC_CICR_PLLSAI1RDYC /*!< PLLSAI1 Ready Interrupt Clear 
 153:Drivers/STM32WBxx_HAL_Driver/Inc/stm32wbxx_ll_rcc.h **** #endif /* SAI1 */
 154:Drivers/STM32WBxx_HAL_Driver/Inc/stm32wbxx_ll_rcc.h **** #define LL_RCC_CICR_LSECSSC                RCC_CICR_LSECSSC     /*!< LSE Clock Security System Inte
 155:Drivers/STM32WBxx_HAL_Driver/Inc/stm32wbxx_ll_rcc.h **** #define LL_RCC_CICR_CSSC                   RCC_CICR_CSSC        /*!< Clock Security System Interrup
 156:Drivers/STM32WBxx_HAL_Driver/Inc/stm32wbxx_ll_rcc.h **** /**
 157:Drivers/STM32WBxx_HAL_Driver/Inc/stm32wbxx_ll_rcc.h ****   * @}
ARM GAS  C:\Users\Joshua\AppData\Local\Temp\cchJYxqO.s 			page 38


 158:Drivers/STM32WBxx_HAL_Driver/Inc/stm32wbxx_ll_rcc.h ****   */
 159:Drivers/STM32WBxx_HAL_Driver/Inc/stm32wbxx_ll_rcc.h **** 
 160:Drivers/STM32WBxx_HAL_Driver/Inc/stm32wbxx_ll_rcc.h **** /** @defgroup RCC_LL_EC_GET_FLAG Get Flags Defines
 161:Drivers/STM32WBxx_HAL_Driver/Inc/stm32wbxx_ll_rcc.h ****   * @brief    Flags defines which can be used with LL_RCC_ReadReg function
 162:Drivers/STM32WBxx_HAL_Driver/Inc/stm32wbxx_ll_rcc.h ****   * @{
 163:Drivers/STM32WBxx_HAL_Driver/Inc/stm32wbxx_ll_rcc.h ****   */
 164:Drivers/STM32WBxx_HAL_Driver/Inc/stm32wbxx_ll_rcc.h **** #define LL_RCC_CIFR_LSI1RDYF               RCC_CIFR_LSI1RDYF    /*!< LSI1 Ready Interrupt flag     
 165:Drivers/STM32WBxx_HAL_Driver/Inc/stm32wbxx_ll_rcc.h **** #define LL_RCC_CIFR_LSI2RDYF               RCC_CIFR_LSI2RDYF    /*!< LSI2 Ready Interrupt flag     
 166:Drivers/STM32WBxx_HAL_Driver/Inc/stm32wbxx_ll_rcc.h **** #define LL_RCC_CIFR_LSERDYF                RCC_CIFR_LSERDYF     /*!< LSE Ready Interrupt flag      
 167:Drivers/STM32WBxx_HAL_Driver/Inc/stm32wbxx_ll_rcc.h **** #define LL_RCC_CIFR_MSIRDYF                RCC_CIFR_MSIRDYF     /*!< MSI Ready Interrupt flag      
 168:Drivers/STM32WBxx_HAL_Driver/Inc/stm32wbxx_ll_rcc.h **** #define LL_RCC_CIFR_HSIRDYF                RCC_CIFR_HSIRDYF     /*!< HSI Ready Interrupt flag      
 169:Drivers/STM32WBxx_HAL_Driver/Inc/stm32wbxx_ll_rcc.h **** #define LL_RCC_CIFR_HSERDYF                RCC_CIFR_HSERDYF     /*!< HSE Ready Interrupt flag      
 170:Drivers/STM32WBxx_HAL_Driver/Inc/stm32wbxx_ll_rcc.h **** #define LL_RCC_CIFR_PLLRDYF                RCC_CIFR_PLLRDYF     /*!< PLL Ready Interrupt flag      
 171:Drivers/STM32WBxx_HAL_Driver/Inc/stm32wbxx_ll_rcc.h **** #if defined(RCC_HSI48_SUPPORT)
 172:Drivers/STM32WBxx_HAL_Driver/Inc/stm32wbxx_ll_rcc.h **** #define LL_RCC_CIFR_HSI48RDYF              RCC_CIFR_HSI48RDYF   /*!< HSI48 Ready Interrupt flag    
 173:Drivers/STM32WBxx_HAL_Driver/Inc/stm32wbxx_ll_rcc.h **** #endif /* RCC_HSI48_SUPPORT */
 174:Drivers/STM32WBxx_HAL_Driver/Inc/stm32wbxx_ll_rcc.h **** #if defined(SAI1)
 175:Drivers/STM32WBxx_HAL_Driver/Inc/stm32wbxx_ll_rcc.h **** #define LL_RCC_CIFR_PLLSAI1RDYF            RCC_CIFR_PLLSAI1RDYF /*!< PLLSAI1 Ready Interrupt flag  
 176:Drivers/STM32WBxx_HAL_Driver/Inc/stm32wbxx_ll_rcc.h **** #endif /* SAI1 */
 177:Drivers/STM32WBxx_HAL_Driver/Inc/stm32wbxx_ll_rcc.h **** #define LL_RCC_CIFR_LSECSSF                RCC_CIFR_LSECSSF     /*!< LSE Clock Security System Inte
 178:Drivers/STM32WBxx_HAL_Driver/Inc/stm32wbxx_ll_rcc.h **** #define LL_RCC_CIFR_CSSF                   RCC_CIFR_CSSF        /*!< Clock Security System Interrup
 179:Drivers/STM32WBxx_HAL_Driver/Inc/stm32wbxx_ll_rcc.h **** #define LL_RCC_CSR_LPWRRSTF                RCC_CSR_LPWRRSTF     /*!< Low-Power reset flag          
 180:Drivers/STM32WBxx_HAL_Driver/Inc/stm32wbxx_ll_rcc.h **** #define LL_RCC_CSR_OBLRSTF                 RCC_CSR_OBLRSTF      /*!< OBL reset flag                
 181:Drivers/STM32WBxx_HAL_Driver/Inc/stm32wbxx_ll_rcc.h **** #define LL_RCC_CSR_PINRSTF                 RCC_CSR_PINRSTF      /*!< PIN reset flag                
 182:Drivers/STM32WBxx_HAL_Driver/Inc/stm32wbxx_ll_rcc.h **** #define LL_RCC_CSR_SFTRSTF                 RCC_CSR_SFTRSTF      /*!< Software Reset flag           
 183:Drivers/STM32WBxx_HAL_Driver/Inc/stm32wbxx_ll_rcc.h **** #define LL_RCC_CSR_IWDGRSTF                RCC_CSR_IWDGRSTF     /*!< Independent Watchdog reset fla
 184:Drivers/STM32WBxx_HAL_Driver/Inc/stm32wbxx_ll_rcc.h **** #define LL_RCC_CSR_WWDGRSTF                RCC_CSR_WWDGRSTF     /*!< Window watchdog reset flag    
 185:Drivers/STM32WBxx_HAL_Driver/Inc/stm32wbxx_ll_rcc.h **** #define LL_RCC_CSR_BORRSTF                 RCC_CSR_BORRSTF      /*!< BOR reset flag                
 186:Drivers/STM32WBxx_HAL_Driver/Inc/stm32wbxx_ll_rcc.h **** /**
 187:Drivers/STM32WBxx_HAL_Driver/Inc/stm32wbxx_ll_rcc.h ****   * @}
 188:Drivers/STM32WBxx_HAL_Driver/Inc/stm32wbxx_ll_rcc.h ****   */
 189:Drivers/STM32WBxx_HAL_Driver/Inc/stm32wbxx_ll_rcc.h **** 
 190:Drivers/STM32WBxx_HAL_Driver/Inc/stm32wbxx_ll_rcc.h **** /** @defgroup RCC_LL_EC_IT IT Defines
 191:Drivers/STM32WBxx_HAL_Driver/Inc/stm32wbxx_ll_rcc.h ****   * @brief    IT defines which can be used with LL_RCC_ReadReg and  LL_RCC_WriteReg functions
 192:Drivers/STM32WBxx_HAL_Driver/Inc/stm32wbxx_ll_rcc.h ****   * @{
 193:Drivers/STM32WBxx_HAL_Driver/Inc/stm32wbxx_ll_rcc.h ****   */
 194:Drivers/STM32WBxx_HAL_Driver/Inc/stm32wbxx_ll_rcc.h **** #define LL_RCC_CIER_LSI1RDYIE              RCC_CIER_LSI1RDYIE     /*!< LSI1 Ready Interrupt Enable 
 195:Drivers/STM32WBxx_HAL_Driver/Inc/stm32wbxx_ll_rcc.h **** #define LL_RCC_CIER_LSI2RDYIE              RCC_CIER_LSI2RDYIE     /*!< LSI Ready Interrupt Enable  
 196:Drivers/STM32WBxx_HAL_Driver/Inc/stm32wbxx_ll_rcc.h **** #define LL_RCC_CIER_LSERDYIE               RCC_CIER_LSERDYIE      /*!< LSE Ready Interrupt Enable  
 197:Drivers/STM32WBxx_HAL_Driver/Inc/stm32wbxx_ll_rcc.h **** #define LL_RCC_CIER_MSIRDYIE               RCC_CIER_MSIRDYIE      /*!< MSI Ready Interrupt Enable  
 198:Drivers/STM32WBxx_HAL_Driver/Inc/stm32wbxx_ll_rcc.h **** #define LL_RCC_CIER_HSIRDYIE               RCC_CIER_HSIRDYIE      /*!< HSI Ready Interrupt Enable  
 199:Drivers/STM32WBxx_HAL_Driver/Inc/stm32wbxx_ll_rcc.h **** #define LL_RCC_CIER_HSERDYIE               RCC_CIER_HSERDYIE      /*!< HSE Ready Interrupt Enable  
 200:Drivers/STM32WBxx_HAL_Driver/Inc/stm32wbxx_ll_rcc.h **** #define LL_RCC_CIER_PLLRDYIE               RCC_CIER_PLLRDYIE      /*!< PLL Ready Interrupt Enable  
 201:Drivers/STM32WBxx_HAL_Driver/Inc/stm32wbxx_ll_rcc.h **** #if defined(RCC_HSI48_SUPPORT)
 202:Drivers/STM32WBxx_HAL_Driver/Inc/stm32wbxx_ll_rcc.h **** #define LL_RCC_CIER_HSI48RDYIE             RCC_CIER_HSI48RDYIE    /*!< HSI48 Ready Interrupt Enable
 203:Drivers/STM32WBxx_HAL_Driver/Inc/stm32wbxx_ll_rcc.h **** #endif /* RCC_HSI48_SUPPORT */
 204:Drivers/STM32WBxx_HAL_Driver/Inc/stm32wbxx_ll_rcc.h **** #if defined(SAI1)
 205:Drivers/STM32WBxx_HAL_Driver/Inc/stm32wbxx_ll_rcc.h **** #define LL_RCC_CIER_PLLSAI1RDYIE           RCC_CIER_PLLSAI1RDYIE  /*!< PLLSAI1 Ready Interrupt Enab
 206:Drivers/STM32WBxx_HAL_Driver/Inc/stm32wbxx_ll_rcc.h **** #endif /* SAI1 */
 207:Drivers/STM32WBxx_HAL_Driver/Inc/stm32wbxx_ll_rcc.h **** #define LL_RCC_CIER_LSECSSIE               RCC_CIER_LSECSSIE      /*!< LSE CSS Interrupt Enable    
 208:Drivers/STM32WBxx_HAL_Driver/Inc/stm32wbxx_ll_rcc.h **** /**
 209:Drivers/STM32WBxx_HAL_Driver/Inc/stm32wbxx_ll_rcc.h ****   * @}
 210:Drivers/STM32WBxx_HAL_Driver/Inc/stm32wbxx_ll_rcc.h ****   */
 211:Drivers/STM32WBxx_HAL_Driver/Inc/stm32wbxx_ll_rcc.h **** 
 212:Drivers/STM32WBxx_HAL_Driver/Inc/stm32wbxx_ll_rcc.h **** /** @defgroup RCC_LL_EC_LSEDRIVE  LSE oscillator drive capability
 213:Drivers/STM32WBxx_HAL_Driver/Inc/stm32wbxx_ll_rcc.h ****   * @{
 214:Drivers/STM32WBxx_HAL_Driver/Inc/stm32wbxx_ll_rcc.h ****   */
ARM GAS  C:\Users\Joshua\AppData\Local\Temp\cchJYxqO.s 			page 39


 215:Drivers/STM32WBxx_HAL_Driver/Inc/stm32wbxx_ll_rcc.h **** #define LL_RCC_LSEDRIVE_LOW                0x00000000U             /*!< Xtal mode lower driving cap
 216:Drivers/STM32WBxx_HAL_Driver/Inc/stm32wbxx_ll_rcc.h **** #define LL_RCC_LSEDRIVE_MEDIUMLOW          RCC_BDCR_LSEDRV_0       /*!< Xtal mode medium low drivin
 217:Drivers/STM32WBxx_HAL_Driver/Inc/stm32wbxx_ll_rcc.h **** #define LL_RCC_LSEDRIVE_MEDIUMHIGH         RCC_BDCR_LSEDRV_1       /*!< Xtal mode medium high drivi
 218:Drivers/STM32WBxx_HAL_Driver/Inc/stm32wbxx_ll_rcc.h **** #define LL_RCC_LSEDRIVE_HIGH               RCC_BDCR_LSEDRV         /*!< Xtal mode higher driving ca
 219:Drivers/STM32WBxx_HAL_Driver/Inc/stm32wbxx_ll_rcc.h **** /**
 220:Drivers/STM32WBxx_HAL_Driver/Inc/stm32wbxx_ll_rcc.h ****   * @}
 221:Drivers/STM32WBxx_HAL_Driver/Inc/stm32wbxx_ll_rcc.h ****   */
 222:Drivers/STM32WBxx_HAL_Driver/Inc/stm32wbxx_ll_rcc.h **** 
 223:Drivers/STM32WBxx_HAL_Driver/Inc/stm32wbxx_ll_rcc.h **** /** @defgroup RCC_LL_EC_MSIRANGE  MSI clock ranges
 224:Drivers/STM32WBxx_HAL_Driver/Inc/stm32wbxx_ll_rcc.h ****   * @{
 225:Drivers/STM32WBxx_HAL_Driver/Inc/stm32wbxx_ll_rcc.h ****   */
 226:Drivers/STM32WBxx_HAL_Driver/Inc/stm32wbxx_ll_rcc.h **** #define LL_RCC_MSIRANGE_0                  RCC_CR_MSIRANGE_0  /*!< MSI = 100 KHz  */
 227:Drivers/STM32WBxx_HAL_Driver/Inc/stm32wbxx_ll_rcc.h **** #define LL_RCC_MSIRANGE_1                  RCC_CR_MSIRANGE_1  /*!< MSI = 200 KHz  */
 228:Drivers/STM32WBxx_HAL_Driver/Inc/stm32wbxx_ll_rcc.h **** #define LL_RCC_MSIRANGE_2                  RCC_CR_MSIRANGE_2  /*!< MSI = 400 KHz  */
 229:Drivers/STM32WBxx_HAL_Driver/Inc/stm32wbxx_ll_rcc.h **** #define LL_RCC_MSIRANGE_3                  RCC_CR_MSIRANGE_3  /*!< MSI = 800 KHz  */
 230:Drivers/STM32WBxx_HAL_Driver/Inc/stm32wbxx_ll_rcc.h **** #define LL_RCC_MSIRANGE_4                  RCC_CR_MSIRANGE_4  /*!< MSI = 1 MHz    */
 231:Drivers/STM32WBxx_HAL_Driver/Inc/stm32wbxx_ll_rcc.h **** #define LL_RCC_MSIRANGE_5                  RCC_CR_MSIRANGE_5  /*!< MSI = 2 MHz    */
 232:Drivers/STM32WBxx_HAL_Driver/Inc/stm32wbxx_ll_rcc.h **** #define LL_RCC_MSIRANGE_6                  RCC_CR_MSIRANGE_6  /*!< MSI = 4 MHz    */
 233:Drivers/STM32WBxx_HAL_Driver/Inc/stm32wbxx_ll_rcc.h **** #define LL_RCC_MSIRANGE_7                  RCC_CR_MSIRANGE_7  /*!< MSI = 8 MHz    */
 234:Drivers/STM32WBxx_HAL_Driver/Inc/stm32wbxx_ll_rcc.h **** #define LL_RCC_MSIRANGE_8                  RCC_CR_MSIRANGE_8  /*!< MSI = 16 MHz   */
 235:Drivers/STM32WBxx_HAL_Driver/Inc/stm32wbxx_ll_rcc.h **** #define LL_RCC_MSIRANGE_9                  RCC_CR_MSIRANGE_9  /*!< MSI = 24 MHz   */
 236:Drivers/STM32WBxx_HAL_Driver/Inc/stm32wbxx_ll_rcc.h **** #define LL_RCC_MSIRANGE_10                 RCC_CR_MSIRANGE_10 /*!< MSI = 32 MHz   */
 237:Drivers/STM32WBxx_HAL_Driver/Inc/stm32wbxx_ll_rcc.h **** #define LL_RCC_MSIRANGE_11                 RCC_CR_MSIRANGE_11 /*!< MSI = 48 MHz   */
 238:Drivers/STM32WBxx_HAL_Driver/Inc/stm32wbxx_ll_rcc.h **** /**
 239:Drivers/STM32WBxx_HAL_Driver/Inc/stm32wbxx_ll_rcc.h ****   * @}
 240:Drivers/STM32WBxx_HAL_Driver/Inc/stm32wbxx_ll_rcc.h ****   */
 241:Drivers/STM32WBxx_HAL_Driver/Inc/stm32wbxx_ll_rcc.h **** 
 242:Drivers/STM32WBxx_HAL_Driver/Inc/stm32wbxx_ll_rcc.h **** 
 243:Drivers/STM32WBxx_HAL_Driver/Inc/stm32wbxx_ll_rcc.h **** /** @defgroup RCC_LL_EC_HSE_CURRENT_CONTROL  HSE current control max limits
 244:Drivers/STM32WBxx_HAL_Driver/Inc/stm32wbxx_ll_rcc.h ****   * @{
 245:Drivers/STM32WBxx_HAL_Driver/Inc/stm32wbxx_ll_rcc.h ****   */
 246:Drivers/STM32WBxx_HAL_Driver/Inc/stm32wbxx_ll_rcc.h **** #define LL_RCC_HSE_CURRENTMAX_0            0x000000000U                                            
 247:Drivers/STM32WBxx_HAL_Driver/Inc/stm32wbxx_ll_rcc.h **** #define LL_RCC_HSE_CURRENTMAX_1            RCC_HSECR_HSEGMC0                                       
 248:Drivers/STM32WBxx_HAL_Driver/Inc/stm32wbxx_ll_rcc.h **** #define LL_RCC_HSE_CURRENTMAX_2            RCC_HSECR_HSEGMC1                                       
 249:Drivers/STM32WBxx_HAL_Driver/Inc/stm32wbxx_ll_rcc.h **** #define LL_RCC_HSE_CURRENTMAX_3            (RCC_HSECR_HSEGMC1|RCC_HSECR_HSEGMC0)                   
 250:Drivers/STM32WBxx_HAL_Driver/Inc/stm32wbxx_ll_rcc.h **** #define LL_RCC_HSE_CURRENTMAX_4            RCC_HSECR_HSEGMC2                                       
 251:Drivers/STM32WBxx_HAL_Driver/Inc/stm32wbxx_ll_rcc.h **** #define LL_RCC_HSE_CURRENTMAX_5            (RCC_HSECR_HSEGMC2|RCC_HSECR_HSEGMC0)                   
 252:Drivers/STM32WBxx_HAL_Driver/Inc/stm32wbxx_ll_rcc.h **** #define LL_RCC_HSE_CURRENTMAX_6            (RCC_HSECR_HSEGMC2|RCC_HSECR_HSEGMC1)                   
 253:Drivers/STM32WBxx_HAL_Driver/Inc/stm32wbxx_ll_rcc.h **** #define LL_RCC_HSE_CURRENTMAX_7            (RCC_HSECR_HSEGMC2|RCC_HSECR_HSEGMC1|RCC_HSECR_HSEGMC0) 
 254:Drivers/STM32WBxx_HAL_Driver/Inc/stm32wbxx_ll_rcc.h **** /**
 255:Drivers/STM32WBxx_HAL_Driver/Inc/stm32wbxx_ll_rcc.h ****   * @}
 256:Drivers/STM32WBxx_HAL_Driver/Inc/stm32wbxx_ll_rcc.h ****   */
 257:Drivers/STM32WBxx_HAL_Driver/Inc/stm32wbxx_ll_rcc.h **** 
 258:Drivers/STM32WBxx_HAL_Driver/Inc/stm32wbxx_ll_rcc.h **** /** @defgroup RCC_LL_EC_HSE_SENSE_AMPLIFIER  HSE sense amplifier threshold
 259:Drivers/STM32WBxx_HAL_Driver/Inc/stm32wbxx_ll_rcc.h ****   * @{
 260:Drivers/STM32WBxx_HAL_Driver/Inc/stm32wbxx_ll_rcc.h ****   */
 261:Drivers/STM32WBxx_HAL_Driver/Inc/stm32wbxx_ll_rcc.h **** #define LL_RCC_HSEAMPTHRESHOLD_1_2         (0x000000000U)        /*!< HSE sense amplifier bias curr
 262:Drivers/STM32WBxx_HAL_Driver/Inc/stm32wbxx_ll_rcc.h **** #define LL_RCC_HSEAMPTHRESHOLD_3_4         RCC_HSECR_HSES        /*!< HSE sense amplifier bias curr
 263:Drivers/STM32WBxx_HAL_Driver/Inc/stm32wbxx_ll_rcc.h **** /**
 264:Drivers/STM32WBxx_HAL_Driver/Inc/stm32wbxx_ll_rcc.h ****   * @}
 265:Drivers/STM32WBxx_HAL_Driver/Inc/stm32wbxx_ll_rcc.h ****   */
 266:Drivers/STM32WBxx_HAL_Driver/Inc/stm32wbxx_ll_rcc.h **** 
 267:Drivers/STM32WBxx_HAL_Driver/Inc/stm32wbxx_ll_rcc.h **** /** @defgroup RCC_LL_EC_LSCO_CLKSOURCE  LSCO Selection
 268:Drivers/STM32WBxx_HAL_Driver/Inc/stm32wbxx_ll_rcc.h ****   * @{
 269:Drivers/STM32WBxx_HAL_Driver/Inc/stm32wbxx_ll_rcc.h ****   */
 270:Drivers/STM32WBxx_HAL_Driver/Inc/stm32wbxx_ll_rcc.h **** #define LL_RCC_LSCO_CLKSOURCE_LSI          0x00000000U           /*!< LSI selection for low speed c
 271:Drivers/STM32WBxx_HAL_Driver/Inc/stm32wbxx_ll_rcc.h **** #define LL_RCC_LSCO_CLKSOURCE_LSE          RCC_BDCR_LSCOSEL      /*!< LSE selection for low speed c
ARM GAS  C:\Users\Joshua\AppData\Local\Temp\cchJYxqO.s 			page 40


 272:Drivers/STM32WBxx_HAL_Driver/Inc/stm32wbxx_ll_rcc.h **** /**
 273:Drivers/STM32WBxx_HAL_Driver/Inc/stm32wbxx_ll_rcc.h ****   * @}
 274:Drivers/STM32WBxx_HAL_Driver/Inc/stm32wbxx_ll_rcc.h ****   */
 275:Drivers/STM32WBxx_HAL_Driver/Inc/stm32wbxx_ll_rcc.h **** 
 276:Drivers/STM32WBxx_HAL_Driver/Inc/stm32wbxx_ll_rcc.h **** /** @defgroup RCC_LL_EC_SYS_CLKSOURCE  System clock switch
 277:Drivers/STM32WBxx_HAL_Driver/Inc/stm32wbxx_ll_rcc.h ****   * @{
 278:Drivers/STM32WBxx_HAL_Driver/Inc/stm32wbxx_ll_rcc.h ****   */
 279:Drivers/STM32WBxx_HAL_Driver/Inc/stm32wbxx_ll_rcc.h **** #define LL_RCC_SYS_CLKSOURCE_MSI           0x00000000U                       /*!< MSI selection as 
 280:Drivers/STM32WBxx_HAL_Driver/Inc/stm32wbxx_ll_rcc.h **** #define LL_RCC_SYS_CLKSOURCE_HSI           RCC_CFGR_SW_0                     /*!< HSI selection as 
 281:Drivers/STM32WBxx_HAL_Driver/Inc/stm32wbxx_ll_rcc.h **** #define LL_RCC_SYS_CLKSOURCE_HSE           RCC_CFGR_SW_1                     /*!< HSE selection as 
 282:Drivers/STM32WBxx_HAL_Driver/Inc/stm32wbxx_ll_rcc.h **** #define LL_RCC_SYS_CLKSOURCE_PLL           (RCC_CFGR_SW_1 | RCC_CFGR_SW_0)   /*!< PLL selection as 
 283:Drivers/STM32WBxx_HAL_Driver/Inc/stm32wbxx_ll_rcc.h **** /**
 284:Drivers/STM32WBxx_HAL_Driver/Inc/stm32wbxx_ll_rcc.h ****   * @}
 285:Drivers/STM32WBxx_HAL_Driver/Inc/stm32wbxx_ll_rcc.h ****   */
 286:Drivers/STM32WBxx_HAL_Driver/Inc/stm32wbxx_ll_rcc.h **** 
 287:Drivers/STM32WBxx_HAL_Driver/Inc/stm32wbxx_ll_rcc.h **** /** @defgroup RCC_LL_EC_SYS_CLKSOURCE_STATUS  System clock switch status
 288:Drivers/STM32WBxx_HAL_Driver/Inc/stm32wbxx_ll_rcc.h ****   * @{
 289:Drivers/STM32WBxx_HAL_Driver/Inc/stm32wbxx_ll_rcc.h ****   */
 290:Drivers/STM32WBxx_HAL_Driver/Inc/stm32wbxx_ll_rcc.h **** #define LL_RCC_SYS_CLKSOURCE_STATUS_MSI    0x00000000U                       /*!< MSI used as syste
 291:Drivers/STM32WBxx_HAL_Driver/Inc/stm32wbxx_ll_rcc.h **** #define LL_RCC_SYS_CLKSOURCE_STATUS_HSI    RCC_CFGR_SWS_0                    /*!< HSI used as syste
 292:Drivers/STM32WBxx_HAL_Driver/Inc/stm32wbxx_ll_rcc.h **** #define LL_RCC_SYS_CLKSOURCE_STATUS_HSE    RCC_CFGR_SWS_1                    /*!< HSE used as syste
 293:Drivers/STM32WBxx_HAL_Driver/Inc/stm32wbxx_ll_rcc.h **** #define LL_RCC_SYS_CLKSOURCE_STATUS_PLL    (RCC_CFGR_SWS_1 | RCC_CFGR_SWS_0) /*!< PLL used as syste
 294:Drivers/STM32WBxx_HAL_Driver/Inc/stm32wbxx_ll_rcc.h **** /**
 295:Drivers/STM32WBxx_HAL_Driver/Inc/stm32wbxx_ll_rcc.h ****   * @}
 296:Drivers/STM32WBxx_HAL_Driver/Inc/stm32wbxx_ll_rcc.h ****   */
 297:Drivers/STM32WBxx_HAL_Driver/Inc/stm32wbxx_ll_rcc.h **** 
 298:Drivers/STM32WBxx_HAL_Driver/Inc/stm32wbxx_ll_rcc.h **** /** @defgroup RCC_LL_EC_RF_CLKSOURCE_STATUS  RF system clock switch status
 299:Drivers/STM32WBxx_HAL_Driver/Inc/stm32wbxx_ll_rcc.h ****   * @{
 300:Drivers/STM32WBxx_HAL_Driver/Inc/stm32wbxx_ll_rcc.h ****   */
 301:Drivers/STM32WBxx_HAL_Driver/Inc/stm32wbxx_ll_rcc.h **** #define LL_RCC_RF_CLKSOURCE_HSI            0x00000000U        /*!< HSI used as RF system clock     
 302:Drivers/STM32WBxx_HAL_Driver/Inc/stm32wbxx_ll_rcc.h **** #define LL_RCC_RF_CLKSOURCE_HSE_DIV2       RCC_EXTCFGR_RFCSS  /*!< HSE divided by 2 used as RF syst
 303:Drivers/STM32WBxx_HAL_Driver/Inc/stm32wbxx_ll_rcc.h **** /**
 304:Drivers/STM32WBxx_HAL_Driver/Inc/stm32wbxx_ll_rcc.h ****   * @}
 305:Drivers/STM32WBxx_HAL_Driver/Inc/stm32wbxx_ll_rcc.h ****   */
 306:Drivers/STM32WBxx_HAL_Driver/Inc/stm32wbxx_ll_rcc.h **** 
 307:Drivers/STM32WBxx_HAL_Driver/Inc/stm32wbxx_ll_rcc.h **** /** @defgroup RCC_LL_EC_SYSCLK_DIV  AHB prescaler
 308:Drivers/STM32WBxx_HAL_Driver/Inc/stm32wbxx_ll_rcc.h ****   * @{
 309:Drivers/STM32WBxx_HAL_Driver/Inc/stm32wbxx_ll_rcc.h ****   */
 310:Drivers/STM32WBxx_HAL_Driver/Inc/stm32wbxx_ll_rcc.h **** #define LL_RCC_SYSCLK_DIV_1                0x00000000U                                             
 311:Drivers/STM32WBxx_HAL_Driver/Inc/stm32wbxx_ll_rcc.h **** #define LL_RCC_SYSCLK_DIV_2                RCC_CFGR_HPRE_3                                         
 312:Drivers/STM32WBxx_HAL_Driver/Inc/stm32wbxx_ll_rcc.h **** #define LL_RCC_SYSCLK_DIV_3                RCC_CFGR_HPRE_0                                         
 313:Drivers/STM32WBxx_HAL_Driver/Inc/stm32wbxx_ll_rcc.h **** #define LL_RCC_SYSCLK_DIV_4                (RCC_CFGR_HPRE_3 | RCC_CFGR_HPRE_0)                     
 314:Drivers/STM32WBxx_HAL_Driver/Inc/stm32wbxx_ll_rcc.h **** #define LL_RCC_SYSCLK_DIV_5                RCC_CFGR_HPRE_1                                         
 315:Drivers/STM32WBxx_HAL_Driver/Inc/stm32wbxx_ll_rcc.h **** #define LL_RCC_SYSCLK_DIV_6                (RCC_CFGR_HPRE_2 | RCC_CFGR_HPRE_0)                     
 316:Drivers/STM32WBxx_HAL_Driver/Inc/stm32wbxx_ll_rcc.h **** #define LL_RCC_SYSCLK_DIV_8                (RCC_CFGR_HPRE_3 | RCC_CFGR_HPRE_1)                     
 317:Drivers/STM32WBxx_HAL_Driver/Inc/stm32wbxx_ll_rcc.h **** #define LL_RCC_SYSCLK_DIV_10               (RCC_CFGR_HPRE_2 | RCC_CFGR_HPRE_1)                     
 318:Drivers/STM32WBxx_HAL_Driver/Inc/stm32wbxx_ll_rcc.h **** #define LL_RCC_SYSCLK_DIV_16               (RCC_CFGR_HPRE_3 | RCC_CFGR_HPRE_1 | RCC_CFGR_HPRE_0)   
 319:Drivers/STM32WBxx_HAL_Driver/Inc/stm32wbxx_ll_rcc.h **** #define LL_RCC_SYSCLK_DIV_32               (RCC_CFGR_HPRE_2 | RCC_CFGR_HPRE_1 | RCC_CFGR_HPRE_0)   
 320:Drivers/STM32WBxx_HAL_Driver/Inc/stm32wbxx_ll_rcc.h **** #define LL_RCC_SYSCLK_DIV_64               (RCC_CFGR_HPRE_3 | RCC_CFGR_HPRE_2)                     
 321:Drivers/STM32WBxx_HAL_Driver/Inc/stm32wbxx_ll_rcc.h **** #define LL_RCC_SYSCLK_DIV_128              (RCC_CFGR_HPRE_3 | RCC_CFGR_HPRE_2 | RCC_CFGR_HPRE_0)   
 322:Drivers/STM32WBxx_HAL_Driver/Inc/stm32wbxx_ll_rcc.h **** #define LL_RCC_SYSCLK_DIV_256              (RCC_CFGR_HPRE_3 | RCC_CFGR_HPRE_2 | RCC_CFGR_HPRE_1)   
 323:Drivers/STM32WBxx_HAL_Driver/Inc/stm32wbxx_ll_rcc.h **** #define LL_RCC_SYSCLK_DIV_512              (RCC_CFGR_HPRE_3 | RCC_CFGR_HPRE_2 | RCC_CFGR_HPRE_1 | R
 324:Drivers/STM32WBxx_HAL_Driver/Inc/stm32wbxx_ll_rcc.h **** /**
 325:Drivers/STM32WBxx_HAL_Driver/Inc/stm32wbxx_ll_rcc.h ****   * @}
 326:Drivers/STM32WBxx_HAL_Driver/Inc/stm32wbxx_ll_rcc.h ****   */
 327:Drivers/STM32WBxx_HAL_Driver/Inc/stm32wbxx_ll_rcc.h **** 
 328:Drivers/STM32WBxx_HAL_Driver/Inc/stm32wbxx_ll_rcc.h **** /** @defgroup RCC_LL_EC_APB1_DIV  APB low-speed prescaler (APB1)
ARM GAS  C:\Users\Joshua\AppData\Local\Temp\cchJYxqO.s 			page 41


 329:Drivers/STM32WBxx_HAL_Driver/Inc/stm32wbxx_ll_rcc.h ****   * @{
 330:Drivers/STM32WBxx_HAL_Driver/Inc/stm32wbxx_ll_rcc.h ****   */
 331:Drivers/STM32WBxx_HAL_Driver/Inc/stm32wbxx_ll_rcc.h **** #define LL_RCC_APB1_DIV_1                  0x00000000U                                             
 332:Drivers/STM32WBxx_HAL_Driver/Inc/stm32wbxx_ll_rcc.h **** #define LL_RCC_APB1_DIV_2                  RCC_CFGR_PPRE1_2                                        
 333:Drivers/STM32WBxx_HAL_Driver/Inc/stm32wbxx_ll_rcc.h **** #define LL_RCC_APB1_DIV_4                  (RCC_CFGR_PPRE1_2 | RCC_CFGR_PPRE1_0)                   
 334:Drivers/STM32WBxx_HAL_Driver/Inc/stm32wbxx_ll_rcc.h **** #define LL_RCC_APB1_DIV_8                  (RCC_CFGR_PPRE1_2 | RCC_CFGR_PPRE1_1)                   
 335:Drivers/STM32WBxx_HAL_Driver/Inc/stm32wbxx_ll_rcc.h **** #define LL_RCC_APB1_DIV_16                 (RCC_CFGR_PPRE1_2 | RCC_CFGR_PPRE1_1 | RCC_CFGR_PPRE1_0)
 336:Drivers/STM32WBxx_HAL_Driver/Inc/stm32wbxx_ll_rcc.h **** /**
 337:Drivers/STM32WBxx_HAL_Driver/Inc/stm32wbxx_ll_rcc.h ****   * @}
 338:Drivers/STM32WBxx_HAL_Driver/Inc/stm32wbxx_ll_rcc.h ****   */
 339:Drivers/STM32WBxx_HAL_Driver/Inc/stm32wbxx_ll_rcc.h **** 
 340:Drivers/STM32WBxx_HAL_Driver/Inc/stm32wbxx_ll_rcc.h **** /** @defgroup RCC_LL_EC_APB2_DIV  APB high-speed prescaler (APB2)
 341:Drivers/STM32WBxx_HAL_Driver/Inc/stm32wbxx_ll_rcc.h ****   * @{
 342:Drivers/STM32WBxx_HAL_Driver/Inc/stm32wbxx_ll_rcc.h ****   */
 343:Drivers/STM32WBxx_HAL_Driver/Inc/stm32wbxx_ll_rcc.h **** #define LL_RCC_APB2_DIV_1                  0x00000000U                                             
 344:Drivers/STM32WBxx_HAL_Driver/Inc/stm32wbxx_ll_rcc.h **** #define LL_RCC_APB2_DIV_2                  RCC_CFGR_PPRE2_2                                        
 345:Drivers/STM32WBxx_HAL_Driver/Inc/stm32wbxx_ll_rcc.h **** #define LL_RCC_APB2_DIV_4                  (RCC_CFGR_PPRE2_2 | RCC_CFGR_PPRE2_0)                   
 346:Drivers/STM32WBxx_HAL_Driver/Inc/stm32wbxx_ll_rcc.h **** #define LL_RCC_APB2_DIV_8                  (RCC_CFGR_PPRE2_2 | RCC_CFGR_PPRE2_1)                   
 347:Drivers/STM32WBxx_HAL_Driver/Inc/stm32wbxx_ll_rcc.h **** #define LL_RCC_APB2_DIV_16                 (RCC_CFGR_PPRE2_2 | RCC_CFGR_PPRE2_1 | RCC_CFGR_PPRE2_0)
 348:Drivers/STM32WBxx_HAL_Driver/Inc/stm32wbxx_ll_rcc.h **** /**
 349:Drivers/STM32WBxx_HAL_Driver/Inc/stm32wbxx_ll_rcc.h ****   * @}
 350:Drivers/STM32WBxx_HAL_Driver/Inc/stm32wbxx_ll_rcc.h ****   */
 351:Drivers/STM32WBxx_HAL_Driver/Inc/stm32wbxx_ll_rcc.h **** 
 352:Drivers/STM32WBxx_HAL_Driver/Inc/stm32wbxx_ll_rcc.h **** /** @defgroup RCC_LL_EC_STOP_WAKEUPCLOCK  Wakeup from Stop and CSS backup clock selection
 353:Drivers/STM32WBxx_HAL_Driver/Inc/stm32wbxx_ll_rcc.h ****   * @{
 354:Drivers/STM32WBxx_HAL_Driver/Inc/stm32wbxx_ll_rcc.h ****   */
 355:Drivers/STM32WBxx_HAL_Driver/Inc/stm32wbxx_ll_rcc.h **** #define LL_RCC_STOP_WAKEUPCLOCK_MSI        0x00000000U             /*!< MSI selection after wake-up
 356:Drivers/STM32WBxx_HAL_Driver/Inc/stm32wbxx_ll_rcc.h **** #define LL_RCC_STOP_WAKEUPCLOCK_HSI        RCC_CFGR_STOPWUCK       /*!< HSI selection after wake-up
 357:Drivers/STM32WBxx_HAL_Driver/Inc/stm32wbxx_ll_rcc.h **** /**
 358:Drivers/STM32WBxx_HAL_Driver/Inc/stm32wbxx_ll_rcc.h ****   * @}
 359:Drivers/STM32WBxx_HAL_Driver/Inc/stm32wbxx_ll_rcc.h ****   */
 360:Drivers/STM32WBxx_HAL_Driver/Inc/stm32wbxx_ll_rcc.h **** 
 361:Drivers/STM32WBxx_HAL_Driver/Inc/stm32wbxx_ll_rcc.h **** /** @defgroup RCC_LL_EC_MCO1SOURCE  MCO1 SOURCE selection
 362:Drivers/STM32WBxx_HAL_Driver/Inc/stm32wbxx_ll_rcc.h ****   * @{
 363:Drivers/STM32WBxx_HAL_Driver/Inc/stm32wbxx_ll_rcc.h ****   */
 364:Drivers/STM32WBxx_HAL_Driver/Inc/stm32wbxx_ll_rcc.h **** #define LL_RCC_MCO1SOURCE_NOCLOCK          0x00000000U                                   /*!< MCO o
 365:Drivers/STM32WBxx_HAL_Driver/Inc/stm32wbxx_ll_rcc.h **** #define LL_RCC_MCO1SOURCE_SYSCLK           RCC_CFGR_MCOSEL_0                             /*!< SYSCL
 366:Drivers/STM32WBxx_HAL_Driver/Inc/stm32wbxx_ll_rcc.h **** #define LL_RCC_MCO1SOURCE_MSI              RCC_CFGR_MCOSEL_1                             /*!< MSI s
 367:Drivers/STM32WBxx_HAL_Driver/Inc/stm32wbxx_ll_rcc.h **** #define LL_RCC_MCO1SOURCE_HSI              (RCC_CFGR_MCOSEL_0| RCC_CFGR_MCOSEL_1)        /*!< HSI s
 368:Drivers/STM32WBxx_HAL_Driver/Inc/stm32wbxx_ll_rcc.h **** #define LL_RCC_MCO1SOURCE_HSE              RCC_CFGR_MCOSEL_2                             /*!< HSE a
 369:Drivers/STM32WBxx_HAL_Driver/Inc/stm32wbxx_ll_rcc.h **** #define LL_RCC_MCO1SOURCE_PLLCLK           (RCC_CFGR_MCOSEL_0|RCC_CFGR_MCOSEL_2)         /*!< Main 
 370:Drivers/STM32WBxx_HAL_Driver/Inc/stm32wbxx_ll_rcc.h **** #define LL_RCC_MCO1SOURCE_LSI1             (RCC_CFGR_MCOSEL_1|RCC_CFGR_MCOSEL_2)         /*!< LSI1 
 371:Drivers/STM32WBxx_HAL_Driver/Inc/stm32wbxx_ll_rcc.h **** #define LL_RCC_MCO1SOURCE_LSI2             (RCC_CFGR_MCOSEL_0|RCC_CFGR_MCOSEL_1|RCC_CFGR_MCOSEL_2) 
 372:Drivers/STM32WBxx_HAL_Driver/Inc/stm32wbxx_ll_rcc.h **** #define LL_RCC_MCO1SOURCE_LSE              RCC_CFGR_MCOSEL_3                             /*!< LSE s
 373:Drivers/STM32WBxx_HAL_Driver/Inc/stm32wbxx_ll_rcc.h **** #if defined(RCC_HSI48_SUPPORT)
 374:Drivers/STM32WBxx_HAL_Driver/Inc/stm32wbxx_ll_rcc.h **** #define LL_RCC_MCO1SOURCE_HSI48            (RCC_CFGR_MCOSEL_0|RCC_CFGR_MCOSEL_3)         /*!< HSI48
 375:Drivers/STM32WBxx_HAL_Driver/Inc/stm32wbxx_ll_rcc.h **** #endif /* RCC_HSI48_SUPPORT */
 376:Drivers/STM32WBxx_HAL_Driver/Inc/stm32wbxx_ll_rcc.h **** #define LL_RCC_MCO1SOURCE_HSE_BEFORE_STAB  (RCC_CFGR_MCOSEL_2|RCC_CFGR_MCOSEL_3)         /*!< HSE b
 377:Drivers/STM32WBxx_HAL_Driver/Inc/stm32wbxx_ll_rcc.h **** /**
 378:Drivers/STM32WBxx_HAL_Driver/Inc/stm32wbxx_ll_rcc.h ****   * @}
 379:Drivers/STM32WBxx_HAL_Driver/Inc/stm32wbxx_ll_rcc.h ****   */
 380:Drivers/STM32WBxx_HAL_Driver/Inc/stm32wbxx_ll_rcc.h **** 
 381:Drivers/STM32WBxx_HAL_Driver/Inc/stm32wbxx_ll_rcc.h **** /** @defgroup RCC_LL_EC_MCO1_DIV  MCO1 prescaler
 382:Drivers/STM32WBxx_HAL_Driver/Inc/stm32wbxx_ll_rcc.h ****   * @{
 383:Drivers/STM32WBxx_HAL_Driver/Inc/stm32wbxx_ll_rcc.h ****   */
 384:Drivers/STM32WBxx_HAL_Driver/Inc/stm32wbxx_ll_rcc.h **** #define LL_RCC_MCO1_DIV_1                  0x00000000U                               /*!< MCO not d
 385:Drivers/STM32WBxx_HAL_Driver/Inc/stm32wbxx_ll_rcc.h **** #define LL_RCC_MCO1_DIV_2                  RCC_CFGR_MCOPRE_0                         /*!< MCO divid
ARM GAS  C:\Users\Joshua\AppData\Local\Temp\cchJYxqO.s 			page 42


 386:Drivers/STM32WBxx_HAL_Driver/Inc/stm32wbxx_ll_rcc.h **** #define LL_RCC_MCO1_DIV_4                  RCC_CFGR_MCOPRE_1                         /*!< MCO divid
 387:Drivers/STM32WBxx_HAL_Driver/Inc/stm32wbxx_ll_rcc.h **** #define LL_RCC_MCO1_DIV_8                  (RCC_CFGR_MCOPRE_1 | RCC_CFGR_MCOPRE_0)   /*!< MCO divid
 388:Drivers/STM32WBxx_HAL_Driver/Inc/stm32wbxx_ll_rcc.h **** #define LL_RCC_MCO1_DIV_16                 RCC_CFGR_MCOPRE_2                         /*!< MCO divid
 389:Drivers/STM32WBxx_HAL_Driver/Inc/stm32wbxx_ll_rcc.h **** /**
 390:Drivers/STM32WBxx_HAL_Driver/Inc/stm32wbxx_ll_rcc.h ****   * @}
 391:Drivers/STM32WBxx_HAL_Driver/Inc/stm32wbxx_ll_rcc.h ****   */
 392:Drivers/STM32WBxx_HAL_Driver/Inc/stm32wbxx_ll_rcc.h **** 
 393:Drivers/STM32WBxx_HAL_Driver/Inc/stm32wbxx_ll_rcc.h **** #if defined(RCC_SMPS_SUPPORT)
 394:Drivers/STM32WBxx_HAL_Driver/Inc/stm32wbxx_ll_rcc.h **** /** @defgroup RCC_LL_EC_SMPS_CLKSOURCE  SMPS clock switch
 395:Drivers/STM32WBxx_HAL_Driver/Inc/stm32wbxx_ll_rcc.h ****   * @{
 396:Drivers/STM32WBxx_HAL_Driver/Inc/stm32wbxx_ll_rcc.h ****   */
 397:Drivers/STM32WBxx_HAL_Driver/Inc/stm32wbxx_ll_rcc.h **** #define LL_RCC_SMPS_CLKSOURCE_HSI           0x00000000U             /*!< HSI selection as SMPS cloc
 398:Drivers/STM32WBxx_HAL_Driver/Inc/stm32wbxx_ll_rcc.h **** #define LL_RCC_SMPS_CLKSOURCE_MSI           RCC_SMPSCR_SMPSSEL_0    /*!< MSI selection as SMPS cloc
 399:Drivers/STM32WBxx_HAL_Driver/Inc/stm32wbxx_ll_rcc.h **** #define LL_RCC_SMPS_CLKSOURCE_HSE           RCC_SMPSCR_SMPSSEL_1    /*!< HSE selection as SMPS cloc
 400:Drivers/STM32WBxx_HAL_Driver/Inc/stm32wbxx_ll_rcc.h **** /**
 401:Drivers/STM32WBxx_HAL_Driver/Inc/stm32wbxx_ll_rcc.h ****   * @}
 402:Drivers/STM32WBxx_HAL_Driver/Inc/stm32wbxx_ll_rcc.h ****   */
 403:Drivers/STM32WBxx_HAL_Driver/Inc/stm32wbxx_ll_rcc.h **** 
 404:Drivers/STM32WBxx_HAL_Driver/Inc/stm32wbxx_ll_rcc.h **** /** @defgroup RCC_LL_EC_SMPS_CLKSOURCE_STATUS  SMPS clock switch status
 405:Drivers/STM32WBxx_HAL_Driver/Inc/stm32wbxx_ll_rcc.h ****   * @{
 406:Drivers/STM32WBxx_HAL_Driver/Inc/stm32wbxx_ll_rcc.h ****   */
 407:Drivers/STM32WBxx_HAL_Driver/Inc/stm32wbxx_ll_rcc.h **** #define LL_RCC_SMPS_CLKSOURCE_STATUS_HSI       0x00000000U                                   /*!< H
 408:Drivers/STM32WBxx_HAL_Driver/Inc/stm32wbxx_ll_rcc.h **** #define LL_RCC_SMPS_CLKSOURCE_STATUS_MSI       RCC_SMPSCR_SMPSSWS_0                          /*!< M
 409:Drivers/STM32WBxx_HAL_Driver/Inc/stm32wbxx_ll_rcc.h **** #define LL_RCC_SMPS_CLKSOURCE_STATUS_HSE       RCC_SMPSCR_SMPSSWS_1                          /*!< H
 410:Drivers/STM32WBxx_HAL_Driver/Inc/stm32wbxx_ll_rcc.h **** #define LL_RCC_SMPS_CLKSOURCE_STATUS_NO_CLOCK  (RCC_SMPSCR_SMPSSWS_0|RCC_SMPSCR_SMPSSWS_1)   /*!< N
 411:Drivers/STM32WBxx_HAL_Driver/Inc/stm32wbxx_ll_rcc.h **** /**
 412:Drivers/STM32WBxx_HAL_Driver/Inc/stm32wbxx_ll_rcc.h ****   * @}
 413:Drivers/STM32WBxx_HAL_Driver/Inc/stm32wbxx_ll_rcc.h ****   */
 414:Drivers/STM32WBxx_HAL_Driver/Inc/stm32wbxx_ll_rcc.h **** 
 415:Drivers/STM32WBxx_HAL_Driver/Inc/stm32wbxx_ll_rcc.h **** /** @defgroup RCC_LL_EC_SMPS_DIV  SMPS prescaler
 416:Drivers/STM32WBxx_HAL_Driver/Inc/stm32wbxx_ll_rcc.h ****     * @{
 417:Drivers/STM32WBxx_HAL_Driver/Inc/stm32wbxx_ll_rcc.h ****     */
 418:Drivers/STM32WBxx_HAL_Driver/Inc/stm32wbxx_ll_rcc.h **** #define LL_RCC_SMPS_DIV_0                  (0x00000000U)                                     /*!< S
 419:Drivers/STM32WBxx_HAL_Driver/Inc/stm32wbxx_ll_rcc.h **** #define LL_RCC_SMPS_DIV_1                  RCC_SMPSCR_SMPSDIV_0                              /*!< S
 420:Drivers/STM32WBxx_HAL_Driver/Inc/stm32wbxx_ll_rcc.h **** #define LL_RCC_SMPS_DIV_2                  RCC_SMPSCR_SMPSDIV_1                              /*!< S
 421:Drivers/STM32WBxx_HAL_Driver/Inc/stm32wbxx_ll_rcc.h **** #define LL_RCC_SMPS_DIV_3                  (RCC_SMPSCR_SMPSDIV_0|RCC_SMPSCR_SMPSDIV_1)       /*!< S
 422:Drivers/STM32WBxx_HAL_Driver/Inc/stm32wbxx_ll_rcc.h **** /**
 423:Drivers/STM32WBxx_HAL_Driver/Inc/stm32wbxx_ll_rcc.h ****     * @}
 424:Drivers/STM32WBxx_HAL_Driver/Inc/stm32wbxx_ll_rcc.h ****     */
 425:Drivers/STM32WBxx_HAL_Driver/Inc/stm32wbxx_ll_rcc.h **** #endif /* RCC_SMPS_SUPPORT */
 426:Drivers/STM32WBxx_HAL_Driver/Inc/stm32wbxx_ll_rcc.h **** 
 427:Drivers/STM32WBxx_HAL_Driver/Inc/stm32wbxx_ll_rcc.h **** #if defined(USE_FULL_LL_DRIVER)
 428:Drivers/STM32WBxx_HAL_Driver/Inc/stm32wbxx_ll_rcc.h **** /** @defgroup RCC_LL_EC_PERIPH_FREQUENCY Peripheral clock frequency
 429:Drivers/STM32WBxx_HAL_Driver/Inc/stm32wbxx_ll_rcc.h ****   * @{
 430:Drivers/STM32WBxx_HAL_Driver/Inc/stm32wbxx_ll_rcc.h ****   */
 431:Drivers/STM32WBxx_HAL_Driver/Inc/stm32wbxx_ll_rcc.h **** #define LL_RCC_PERIPH_FREQUENCY_NO         0x00000000U                 /*!< No clock enabled for th
 432:Drivers/STM32WBxx_HAL_Driver/Inc/stm32wbxx_ll_rcc.h **** #define LL_RCC_PERIPH_FREQUENCY_NA         0xFFFFFFFFU                 /*!< Frequency cannot be pro
 433:Drivers/STM32WBxx_HAL_Driver/Inc/stm32wbxx_ll_rcc.h **** /**
 434:Drivers/STM32WBxx_HAL_Driver/Inc/stm32wbxx_ll_rcc.h ****   * @}
 435:Drivers/STM32WBxx_HAL_Driver/Inc/stm32wbxx_ll_rcc.h ****   */
 436:Drivers/STM32WBxx_HAL_Driver/Inc/stm32wbxx_ll_rcc.h **** #endif /* USE_FULL_LL_DRIVER */
 437:Drivers/STM32WBxx_HAL_Driver/Inc/stm32wbxx_ll_rcc.h **** 
 438:Drivers/STM32WBxx_HAL_Driver/Inc/stm32wbxx_ll_rcc.h **** /** @defgroup RCC_LL_EC_USART1_CLKSOURCE USART1 CLKSOURCE
 439:Drivers/STM32WBxx_HAL_Driver/Inc/stm32wbxx_ll_rcc.h ****   * @{
 440:Drivers/STM32WBxx_HAL_Driver/Inc/stm32wbxx_ll_rcc.h ****   */
 441:Drivers/STM32WBxx_HAL_Driver/Inc/stm32wbxx_ll_rcc.h **** #define LL_RCC_USART1_CLKSOURCE_PCLK2      0x00000000U                /*!< PCLK2 selected as USART1
 442:Drivers/STM32WBxx_HAL_Driver/Inc/stm32wbxx_ll_rcc.h **** #define LL_RCC_USART1_CLKSOURCE_SYSCLK     RCC_CCIPR_USART1SEL_0      /*!< SYSCLK selected as USART
ARM GAS  C:\Users\Joshua\AppData\Local\Temp\cchJYxqO.s 			page 43


 443:Drivers/STM32WBxx_HAL_Driver/Inc/stm32wbxx_ll_rcc.h **** #define LL_RCC_USART1_CLKSOURCE_HSI        RCC_CCIPR_USART1SEL_1      /*!< HSI selected as USART1 c
 444:Drivers/STM32WBxx_HAL_Driver/Inc/stm32wbxx_ll_rcc.h **** #define LL_RCC_USART1_CLKSOURCE_LSE        RCC_CCIPR_USART1SEL        /*!< LSE selected as USART1 c
 445:Drivers/STM32WBxx_HAL_Driver/Inc/stm32wbxx_ll_rcc.h **** /**
 446:Drivers/STM32WBxx_HAL_Driver/Inc/stm32wbxx_ll_rcc.h ****   * @}
 447:Drivers/STM32WBxx_HAL_Driver/Inc/stm32wbxx_ll_rcc.h ****   */
 448:Drivers/STM32WBxx_HAL_Driver/Inc/stm32wbxx_ll_rcc.h **** 
 449:Drivers/STM32WBxx_HAL_Driver/Inc/stm32wbxx_ll_rcc.h **** #if defined(LPUART1)
 450:Drivers/STM32WBxx_HAL_Driver/Inc/stm32wbxx_ll_rcc.h **** /** @defgroup RCC_LL_EC_LPUART1_CLKSOURCE LPUART1 CLKSOURCE
 451:Drivers/STM32WBxx_HAL_Driver/Inc/stm32wbxx_ll_rcc.h ****   * @{
 452:Drivers/STM32WBxx_HAL_Driver/Inc/stm32wbxx_ll_rcc.h ****   */
 453:Drivers/STM32WBxx_HAL_Driver/Inc/stm32wbxx_ll_rcc.h **** #define LL_RCC_LPUART1_CLKSOURCE_PCLK1     0x00000000U               /*!< PCLK1 selected as LPUART1
 454:Drivers/STM32WBxx_HAL_Driver/Inc/stm32wbxx_ll_rcc.h **** #define LL_RCC_LPUART1_CLKSOURCE_SYSCLK    RCC_CCIPR_LPUART1SEL_0    /*!< SYCLK selected as LPUART1
 455:Drivers/STM32WBxx_HAL_Driver/Inc/stm32wbxx_ll_rcc.h **** #define LL_RCC_LPUART1_CLKSOURCE_HSI       RCC_CCIPR_LPUART1SEL_1    /*!< HSI selected as LPUART1 c
 456:Drivers/STM32WBxx_HAL_Driver/Inc/stm32wbxx_ll_rcc.h **** #define LL_RCC_LPUART1_CLKSOURCE_LSE       RCC_CCIPR_LPUART1SEL      /*!< LSE selected as LPUART1 c
 457:Drivers/STM32WBxx_HAL_Driver/Inc/stm32wbxx_ll_rcc.h **** /**
 458:Drivers/STM32WBxx_HAL_Driver/Inc/stm32wbxx_ll_rcc.h ****   * @}
 459:Drivers/STM32WBxx_HAL_Driver/Inc/stm32wbxx_ll_rcc.h ****   */
 460:Drivers/STM32WBxx_HAL_Driver/Inc/stm32wbxx_ll_rcc.h **** #endif /* LPUART1 */
 461:Drivers/STM32WBxx_HAL_Driver/Inc/stm32wbxx_ll_rcc.h **** 
 462:Drivers/STM32WBxx_HAL_Driver/Inc/stm32wbxx_ll_rcc.h **** /** @defgroup RCC_LL_EC_I2Cx_CLKSOURCE I2Cx CLKSOURCE
 463:Drivers/STM32WBxx_HAL_Driver/Inc/stm32wbxx_ll_rcc.h ****   * @{
 464:Drivers/STM32WBxx_HAL_Driver/Inc/stm32wbxx_ll_rcc.h ****   */
 465:Drivers/STM32WBxx_HAL_Driver/Inc/stm32wbxx_ll_rcc.h **** #define LL_RCC_I2C1_CLKSOURCE_PCLK1        (uint32_t)((RCC_CCIPR_I2C1SEL << 4) | (0x00000000U >> 4)
 466:Drivers/STM32WBxx_HAL_Driver/Inc/stm32wbxx_ll_rcc.h **** #define LL_RCC_I2C1_CLKSOURCE_SYSCLK       (uint32_t)((RCC_CCIPR_I2C1SEL << 4) | (RCC_CCIPR_I2C1SEL
 467:Drivers/STM32WBxx_HAL_Driver/Inc/stm32wbxx_ll_rcc.h **** #define LL_RCC_I2C1_CLKSOURCE_HSI          (uint32_t)((RCC_CCIPR_I2C1SEL << 4) | (RCC_CCIPR_I2C1SEL
 468:Drivers/STM32WBxx_HAL_Driver/Inc/stm32wbxx_ll_rcc.h **** #if defined(I2C3)
 469:Drivers/STM32WBxx_HAL_Driver/Inc/stm32wbxx_ll_rcc.h **** #define LL_RCC_I2C3_CLKSOURCE_PCLK1        (uint32_t)((RCC_CCIPR_I2C3SEL << 4) | (0x00000000U >> 4)
 470:Drivers/STM32WBxx_HAL_Driver/Inc/stm32wbxx_ll_rcc.h **** #define LL_RCC_I2C3_CLKSOURCE_SYSCLK       (uint32_t)((RCC_CCIPR_I2C3SEL << 4) | (RCC_CCIPR_I2C3SEL
 471:Drivers/STM32WBxx_HAL_Driver/Inc/stm32wbxx_ll_rcc.h **** #define LL_RCC_I2C3_CLKSOURCE_HSI          (uint32_t)((RCC_CCIPR_I2C3SEL << 4) | (RCC_CCIPR_I2C3SEL
 472:Drivers/STM32WBxx_HAL_Driver/Inc/stm32wbxx_ll_rcc.h **** #endif /* I2C3 */
 473:Drivers/STM32WBxx_HAL_Driver/Inc/stm32wbxx_ll_rcc.h **** /**
 474:Drivers/STM32WBxx_HAL_Driver/Inc/stm32wbxx_ll_rcc.h ****   * @}
 475:Drivers/STM32WBxx_HAL_Driver/Inc/stm32wbxx_ll_rcc.h ****   */
 476:Drivers/STM32WBxx_HAL_Driver/Inc/stm32wbxx_ll_rcc.h **** 
 477:Drivers/STM32WBxx_HAL_Driver/Inc/stm32wbxx_ll_rcc.h **** /** @defgroup RCC_LL_EC_LPTIMx_CLKSOURCE LPTIMx CLKSOURCE
 478:Drivers/STM32WBxx_HAL_Driver/Inc/stm32wbxx_ll_rcc.h ****   * @{
 479:Drivers/STM32WBxx_HAL_Driver/Inc/stm32wbxx_ll_rcc.h ****   */
 480:Drivers/STM32WBxx_HAL_Driver/Inc/stm32wbxx_ll_rcc.h **** #define LL_RCC_LPTIM1_CLKSOURCE_PCLK1      (uint32_t)(RCC_CCIPR_LPTIM1SEL | (0x00000000U >> 16))   
 481:Drivers/STM32WBxx_HAL_Driver/Inc/stm32wbxx_ll_rcc.h **** #define LL_RCC_LPTIM1_CLKSOURCE_LSI        (uint32_t)(RCC_CCIPR_LPTIM1SEL | (RCC_CCIPR_LPTIM1SEL_0 
 482:Drivers/STM32WBxx_HAL_Driver/Inc/stm32wbxx_ll_rcc.h **** #define LL_RCC_LPTIM1_CLKSOURCE_HSI        (uint32_t)(RCC_CCIPR_LPTIM1SEL | (RCC_CCIPR_LPTIM1SEL_1 
 483:Drivers/STM32WBxx_HAL_Driver/Inc/stm32wbxx_ll_rcc.h **** #define LL_RCC_LPTIM1_CLKSOURCE_LSE        (uint32_t)(RCC_CCIPR_LPTIM1SEL | (RCC_CCIPR_LPTIM1SEL >>
 484:Drivers/STM32WBxx_HAL_Driver/Inc/stm32wbxx_ll_rcc.h **** #define LL_RCC_LPTIM2_CLKSOURCE_PCLK1      (uint32_t)(RCC_CCIPR_LPTIM2SEL | (0x00000000U >> 16))   
 485:Drivers/STM32WBxx_HAL_Driver/Inc/stm32wbxx_ll_rcc.h **** #define LL_RCC_LPTIM2_CLKSOURCE_LSI        (uint32_t)(RCC_CCIPR_LPTIM2SEL | (RCC_CCIPR_LPTIM2SEL_0 
 486:Drivers/STM32WBxx_HAL_Driver/Inc/stm32wbxx_ll_rcc.h **** #define LL_RCC_LPTIM2_CLKSOURCE_HSI        (uint32_t)(RCC_CCIPR_LPTIM2SEL | (RCC_CCIPR_LPTIM2SEL_1 
 487:Drivers/STM32WBxx_HAL_Driver/Inc/stm32wbxx_ll_rcc.h **** #define LL_RCC_LPTIM2_CLKSOURCE_LSE        (uint32_t)(RCC_CCIPR_LPTIM2SEL | (RCC_CCIPR_LPTIM2SEL >>
 488:Drivers/STM32WBxx_HAL_Driver/Inc/stm32wbxx_ll_rcc.h **** /**
 489:Drivers/STM32WBxx_HAL_Driver/Inc/stm32wbxx_ll_rcc.h ****   * @}
 490:Drivers/STM32WBxx_HAL_Driver/Inc/stm32wbxx_ll_rcc.h ****   */
 491:Drivers/STM32WBxx_HAL_Driver/Inc/stm32wbxx_ll_rcc.h **** 
 492:Drivers/STM32WBxx_HAL_Driver/Inc/stm32wbxx_ll_rcc.h **** #if defined(SAI1)
 493:Drivers/STM32WBxx_HAL_Driver/Inc/stm32wbxx_ll_rcc.h **** /** @defgroup RCC_LL_EC_SAI1_CLKSOURCE SAI1 CLKSOURCE
 494:Drivers/STM32WBxx_HAL_Driver/Inc/stm32wbxx_ll_rcc.h ****   * @{
 495:Drivers/STM32WBxx_HAL_Driver/Inc/stm32wbxx_ll_rcc.h ****   */
 496:Drivers/STM32WBxx_HAL_Driver/Inc/stm32wbxx_ll_rcc.h **** #define LL_RCC_SAI1_CLKSOURCE_PLLSAI1      0x00000000U            /*!< PLLSAI1 selected as SAI1 clo
 497:Drivers/STM32WBxx_HAL_Driver/Inc/stm32wbxx_ll_rcc.h **** #define LL_RCC_SAI1_CLKSOURCE_PLL          RCC_CCIPR_SAI1SEL_0    /*!< PLL selected as SAI1 clock  
 498:Drivers/STM32WBxx_HAL_Driver/Inc/stm32wbxx_ll_rcc.h **** #define LL_RCC_SAI1_CLKSOURCE_HSI          RCC_CCIPR_SAI1SEL_1    /*!< HSI selected as SAI1 clock  
 499:Drivers/STM32WBxx_HAL_Driver/Inc/stm32wbxx_ll_rcc.h **** #define LL_RCC_SAI1_CLKSOURCE_PIN          RCC_CCIPR_SAI1SEL      /*!< External input selected as S
ARM GAS  C:\Users\Joshua\AppData\Local\Temp\cchJYxqO.s 			page 44


 500:Drivers/STM32WBxx_HAL_Driver/Inc/stm32wbxx_ll_rcc.h **** /**
 501:Drivers/STM32WBxx_HAL_Driver/Inc/stm32wbxx_ll_rcc.h ****   * @}
 502:Drivers/STM32WBxx_HAL_Driver/Inc/stm32wbxx_ll_rcc.h ****   */
 503:Drivers/STM32WBxx_HAL_Driver/Inc/stm32wbxx_ll_rcc.h **** #endif /* SAI1 */
 504:Drivers/STM32WBxx_HAL_Driver/Inc/stm32wbxx_ll_rcc.h **** 
 505:Drivers/STM32WBxx_HAL_Driver/Inc/stm32wbxx_ll_rcc.h **** /** @defgroup RCC_LL_EC_CLK48_CLKSOURCE CLK48 CLKSOURCE
 506:Drivers/STM32WBxx_HAL_Driver/Inc/stm32wbxx_ll_rcc.h ****   * @{
 507:Drivers/STM32WBxx_HAL_Driver/Inc/stm32wbxx_ll_rcc.h ****   */
 508:Drivers/STM32WBxx_HAL_Driver/Inc/stm32wbxx_ll_rcc.h **** #if defined(RCC_HSI48_SUPPORT)
 509:Drivers/STM32WBxx_HAL_Driver/Inc/stm32wbxx_ll_rcc.h **** #define LL_RCC_CLK48_CLKSOURCE_HSI48       0x00000000U           /*!< HSI48 selected as CLK48 clock
 510:Drivers/STM32WBxx_HAL_Driver/Inc/stm32wbxx_ll_rcc.h **** #endif /* RCC_HSI48_SUPPORT */
 511:Drivers/STM32WBxx_HAL_Driver/Inc/stm32wbxx_ll_rcc.h **** #if defined(SAI1)
 512:Drivers/STM32WBxx_HAL_Driver/Inc/stm32wbxx_ll_rcc.h **** #define LL_RCC_CLK48_CLKSOURCE_PLLSAI1     RCC_CCIPR_CLK48SEL_0  /*!< PLLSAI1 selected as CLK48 clo
 513:Drivers/STM32WBxx_HAL_Driver/Inc/stm32wbxx_ll_rcc.h **** #endif /* SAI1 */
 514:Drivers/STM32WBxx_HAL_Driver/Inc/stm32wbxx_ll_rcc.h **** #define LL_RCC_CLK48_CLKSOURCE_PLL         RCC_CCIPR_CLK48SEL_1  /*!< PLL selected as CLK48 clock  
 515:Drivers/STM32WBxx_HAL_Driver/Inc/stm32wbxx_ll_rcc.h **** #define LL_RCC_CLK48_CLKSOURCE_MSI         RCC_CCIPR_CLK48SEL    /*!< MSI selected as CLK48 clock  
 516:Drivers/STM32WBxx_HAL_Driver/Inc/stm32wbxx_ll_rcc.h **** /**
 517:Drivers/STM32WBxx_HAL_Driver/Inc/stm32wbxx_ll_rcc.h ****   * @}
 518:Drivers/STM32WBxx_HAL_Driver/Inc/stm32wbxx_ll_rcc.h ****   */
 519:Drivers/STM32WBxx_HAL_Driver/Inc/stm32wbxx_ll_rcc.h **** 
 520:Drivers/STM32WBxx_HAL_Driver/Inc/stm32wbxx_ll_rcc.h **** /** @defgroup RCC_LL_EC_USB_CLKSOURCE USB CLKSOURCE
 521:Drivers/STM32WBxx_HAL_Driver/Inc/stm32wbxx_ll_rcc.h ****   * @{
 522:Drivers/STM32WBxx_HAL_Driver/Inc/stm32wbxx_ll_rcc.h ****   */
 523:Drivers/STM32WBxx_HAL_Driver/Inc/stm32wbxx_ll_rcc.h **** #if defined(RCC_HSI48_SUPPORT)
 524:Drivers/STM32WBxx_HAL_Driver/Inc/stm32wbxx_ll_rcc.h **** #define LL_RCC_USB_CLKSOURCE_HSI48         LL_RCC_CLK48_CLKSOURCE_HSI48    /*!< HSI48 selected as U
 525:Drivers/STM32WBxx_HAL_Driver/Inc/stm32wbxx_ll_rcc.h **** #endif /* RCC_HSI48_SUPPORT */
 526:Drivers/STM32WBxx_HAL_Driver/Inc/stm32wbxx_ll_rcc.h **** #if defined(SAI1)
 527:Drivers/STM32WBxx_HAL_Driver/Inc/stm32wbxx_ll_rcc.h **** #define LL_RCC_USB_CLKSOURCE_PLLSAI1       LL_RCC_CLK48_CLKSOURCE_PLLSAI1  /*!< PLLSAI1 selected as
 528:Drivers/STM32WBxx_HAL_Driver/Inc/stm32wbxx_ll_rcc.h **** #endif /* SAI1 */
 529:Drivers/STM32WBxx_HAL_Driver/Inc/stm32wbxx_ll_rcc.h **** #define LL_RCC_USB_CLKSOURCE_PLL           LL_RCC_CLK48_CLKSOURCE_PLL      /*!< PLL selected as USB
 530:Drivers/STM32WBxx_HAL_Driver/Inc/stm32wbxx_ll_rcc.h **** #define LL_RCC_USB_CLKSOURCE_MSI           LL_RCC_CLK48_CLKSOURCE_MSI      /*!< MSI selected as USB
 531:Drivers/STM32WBxx_HAL_Driver/Inc/stm32wbxx_ll_rcc.h **** /**
 532:Drivers/STM32WBxx_HAL_Driver/Inc/stm32wbxx_ll_rcc.h ****   * @}
 533:Drivers/STM32WBxx_HAL_Driver/Inc/stm32wbxx_ll_rcc.h ****   */
 534:Drivers/STM32WBxx_HAL_Driver/Inc/stm32wbxx_ll_rcc.h **** 
 535:Drivers/STM32WBxx_HAL_Driver/Inc/stm32wbxx_ll_rcc.h **** /** @defgroup RCC_LL_EC_ADC_CLKSRC ADC CLKSRC
 536:Drivers/STM32WBxx_HAL_Driver/Inc/stm32wbxx_ll_rcc.h ****   * @{
 537:Drivers/STM32WBxx_HAL_Driver/Inc/stm32wbxx_ll_rcc.h ****   */
 538:Drivers/STM32WBxx_HAL_Driver/Inc/stm32wbxx_ll_rcc.h **** #define LL_RCC_ADC_CLKSOURCE_NONE             0x00000000U        /*!< no Clock used as ADC clock*/
 539:Drivers/STM32WBxx_HAL_Driver/Inc/stm32wbxx_ll_rcc.h **** #if defined(STM32WB55xx) || defined (STM32WB5Mxx) || defined (STM32WB35xx)
 540:Drivers/STM32WBxx_HAL_Driver/Inc/stm32wbxx_ll_rcc.h **** #define LL_RCC_ADC_CLKSOURCE_PLLSAI1          RCC_CCIPR_ADCSEL_0 /*!< PLLSAI1 selected as ADC clock
 541:Drivers/STM32WBxx_HAL_Driver/Inc/stm32wbxx_ll_rcc.h **** #elif defined (STM32WB15xx) || defined(STM32WB1Mxx)
 542:Drivers/STM32WBxx_HAL_Driver/Inc/stm32wbxx_ll_rcc.h **** #define LL_RCC_ADC_CLKSOURCE_HSI              RCC_CCIPR_ADCSEL_0 /*!< HSI selected as ADC clock    
 543:Drivers/STM32WBxx_HAL_Driver/Inc/stm32wbxx_ll_rcc.h **** #endif /* STM32WB55xx || STM32WB5Mxx || STM32WB35xx */
 544:Drivers/STM32WBxx_HAL_Driver/Inc/stm32wbxx_ll_rcc.h **** #define LL_RCC_ADC_CLKSOURCE_PLL              RCC_CCIPR_ADCSEL_1 /*!< PLL selected as ADC clock    
 545:Drivers/STM32WBxx_HAL_Driver/Inc/stm32wbxx_ll_rcc.h **** #define LL_RCC_ADC_CLKSOURCE_SYSCLK           RCC_CCIPR_ADCSEL   /*!< SYSCLK selected as ADC clock 
 546:Drivers/STM32WBxx_HAL_Driver/Inc/stm32wbxx_ll_rcc.h **** /**
 547:Drivers/STM32WBxx_HAL_Driver/Inc/stm32wbxx_ll_rcc.h ****   * @}
 548:Drivers/STM32WBxx_HAL_Driver/Inc/stm32wbxx_ll_rcc.h ****   */
 549:Drivers/STM32WBxx_HAL_Driver/Inc/stm32wbxx_ll_rcc.h **** 
 550:Drivers/STM32WBxx_HAL_Driver/Inc/stm32wbxx_ll_rcc.h **** /** @defgroup RCC_LL_EC_RNG_CLKSRC RNG CLKSRC
 551:Drivers/STM32WBxx_HAL_Driver/Inc/stm32wbxx_ll_rcc.h ****   * @{
 552:Drivers/STM32WBxx_HAL_Driver/Inc/stm32wbxx_ll_rcc.h ****   */
 553:Drivers/STM32WBxx_HAL_Driver/Inc/stm32wbxx_ll_rcc.h **** #define LL_RCC_RNG_CLKSOURCE_CLK48            0x00000000U        /*!< CLK48 divided by 3 selected a
 554:Drivers/STM32WBxx_HAL_Driver/Inc/stm32wbxx_ll_rcc.h **** #define LL_RCC_RNG_CLKSOURCE_LSI              RCC_CCIPR_RNGSEL_0 /*!< LSI selected as ADC clock    
 555:Drivers/STM32WBxx_HAL_Driver/Inc/stm32wbxx_ll_rcc.h **** #define LL_RCC_RNG_CLKSOURCE_LSE              RCC_CCIPR_RNGSEL_1 /*!< LSE selected as ADC clock    
 556:Drivers/STM32WBxx_HAL_Driver/Inc/stm32wbxx_ll_rcc.h **** /**
ARM GAS  C:\Users\Joshua\AppData\Local\Temp\cchJYxqO.s 			page 45


 557:Drivers/STM32WBxx_HAL_Driver/Inc/stm32wbxx_ll_rcc.h ****   * @}
 558:Drivers/STM32WBxx_HAL_Driver/Inc/stm32wbxx_ll_rcc.h ****   */
 559:Drivers/STM32WBxx_HAL_Driver/Inc/stm32wbxx_ll_rcc.h **** 
 560:Drivers/STM32WBxx_HAL_Driver/Inc/stm32wbxx_ll_rcc.h **** 
 561:Drivers/STM32WBxx_HAL_Driver/Inc/stm32wbxx_ll_rcc.h **** /** @defgroup RCC_LL_EC_USART1 USART1
 562:Drivers/STM32WBxx_HAL_Driver/Inc/stm32wbxx_ll_rcc.h ****   * @{
 563:Drivers/STM32WBxx_HAL_Driver/Inc/stm32wbxx_ll_rcc.h ****   */
 564:Drivers/STM32WBxx_HAL_Driver/Inc/stm32wbxx_ll_rcc.h **** #define LL_RCC_USART1_CLKSOURCE            RCC_CCIPR_USART1SEL   /*!< USART1 clock source selection
 565:Drivers/STM32WBxx_HAL_Driver/Inc/stm32wbxx_ll_rcc.h **** /**
 566:Drivers/STM32WBxx_HAL_Driver/Inc/stm32wbxx_ll_rcc.h ****   * @}
 567:Drivers/STM32WBxx_HAL_Driver/Inc/stm32wbxx_ll_rcc.h ****   */
 568:Drivers/STM32WBxx_HAL_Driver/Inc/stm32wbxx_ll_rcc.h **** 
 569:Drivers/STM32WBxx_HAL_Driver/Inc/stm32wbxx_ll_rcc.h **** #if defined(LPUART1)
 570:Drivers/STM32WBxx_HAL_Driver/Inc/stm32wbxx_ll_rcc.h **** /** @defgroup RCC_LL_EC_LPUART1 LPUART1
 571:Drivers/STM32WBxx_HAL_Driver/Inc/stm32wbxx_ll_rcc.h ****   * @{
 572:Drivers/STM32WBxx_HAL_Driver/Inc/stm32wbxx_ll_rcc.h ****   */
 573:Drivers/STM32WBxx_HAL_Driver/Inc/stm32wbxx_ll_rcc.h **** #define LL_RCC_LPUART1_CLKSOURCE           RCC_CCIPR_LPUART1SEL  /*!< LPUART1 clock source selectio
 574:Drivers/STM32WBxx_HAL_Driver/Inc/stm32wbxx_ll_rcc.h **** /**
 575:Drivers/STM32WBxx_HAL_Driver/Inc/stm32wbxx_ll_rcc.h ****   * @}
 576:Drivers/STM32WBxx_HAL_Driver/Inc/stm32wbxx_ll_rcc.h ****   */
 577:Drivers/STM32WBxx_HAL_Driver/Inc/stm32wbxx_ll_rcc.h **** #endif /* LPUART1 */
 578:Drivers/STM32WBxx_HAL_Driver/Inc/stm32wbxx_ll_rcc.h **** 
 579:Drivers/STM32WBxx_HAL_Driver/Inc/stm32wbxx_ll_rcc.h **** /** @defgroup RCC_LL_EC_I2C1 I2C1
 580:Drivers/STM32WBxx_HAL_Driver/Inc/stm32wbxx_ll_rcc.h ****   * @{
 581:Drivers/STM32WBxx_HAL_Driver/Inc/stm32wbxx_ll_rcc.h ****   */
 582:Drivers/STM32WBxx_HAL_Driver/Inc/stm32wbxx_ll_rcc.h **** #define LL_RCC_I2C1_CLKSOURCE              RCC_CCIPR_I2C1SEL    /*!< I2C1 clock source selection bi
 583:Drivers/STM32WBxx_HAL_Driver/Inc/stm32wbxx_ll_rcc.h **** #define LL_RCC_I2C3_CLKSOURCE              RCC_CCIPR_I2C3SEL    /*!< I2C3 clock source selection bi
 584:Drivers/STM32WBxx_HAL_Driver/Inc/stm32wbxx_ll_rcc.h **** /**
 585:Drivers/STM32WBxx_HAL_Driver/Inc/stm32wbxx_ll_rcc.h ****   * @}
 586:Drivers/STM32WBxx_HAL_Driver/Inc/stm32wbxx_ll_rcc.h ****   */
 587:Drivers/STM32WBxx_HAL_Driver/Inc/stm32wbxx_ll_rcc.h **** 
 588:Drivers/STM32WBxx_HAL_Driver/Inc/stm32wbxx_ll_rcc.h **** /** @defgroup RCC_LL_EC_LPTIM1 LPTIM1
 589:Drivers/STM32WBxx_HAL_Driver/Inc/stm32wbxx_ll_rcc.h ****   * @{
 590:Drivers/STM32WBxx_HAL_Driver/Inc/stm32wbxx_ll_rcc.h ****   */
 591:Drivers/STM32WBxx_HAL_Driver/Inc/stm32wbxx_ll_rcc.h **** #define LL_RCC_LPTIM1_CLKSOURCE            RCC_CCIPR_LPTIM1SEL  /*!< LPTIM1 clock source selection 
 592:Drivers/STM32WBxx_HAL_Driver/Inc/stm32wbxx_ll_rcc.h **** #define LL_RCC_LPTIM2_CLKSOURCE            RCC_CCIPR_LPTIM2SEL  /*!< LPTIM2 clock source selection 
 593:Drivers/STM32WBxx_HAL_Driver/Inc/stm32wbxx_ll_rcc.h **** /**
 594:Drivers/STM32WBxx_HAL_Driver/Inc/stm32wbxx_ll_rcc.h ****   * @}
 595:Drivers/STM32WBxx_HAL_Driver/Inc/stm32wbxx_ll_rcc.h ****   */
 596:Drivers/STM32WBxx_HAL_Driver/Inc/stm32wbxx_ll_rcc.h **** 
 597:Drivers/STM32WBxx_HAL_Driver/Inc/stm32wbxx_ll_rcc.h **** #if defined(SAI1)
 598:Drivers/STM32WBxx_HAL_Driver/Inc/stm32wbxx_ll_rcc.h **** /** @defgroup RCC_LL_EC_SAI1 SAI1
 599:Drivers/STM32WBxx_HAL_Driver/Inc/stm32wbxx_ll_rcc.h ****   * @{
 600:Drivers/STM32WBxx_HAL_Driver/Inc/stm32wbxx_ll_rcc.h ****   */
 601:Drivers/STM32WBxx_HAL_Driver/Inc/stm32wbxx_ll_rcc.h **** #define LL_RCC_SAI1_CLKSOURCE              RCC_CCIPR_SAI1SEL   /*!< SAI1 clock source selection bit
 602:Drivers/STM32WBxx_HAL_Driver/Inc/stm32wbxx_ll_rcc.h **** /**
 603:Drivers/STM32WBxx_HAL_Driver/Inc/stm32wbxx_ll_rcc.h ****   * @}
 604:Drivers/STM32WBxx_HAL_Driver/Inc/stm32wbxx_ll_rcc.h ****   */
 605:Drivers/STM32WBxx_HAL_Driver/Inc/stm32wbxx_ll_rcc.h **** #endif /* SAI1 */
 606:Drivers/STM32WBxx_HAL_Driver/Inc/stm32wbxx_ll_rcc.h **** 
 607:Drivers/STM32WBxx_HAL_Driver/Inc/stm32wbxx_ll_rcc.h **** /** @defgroup RCC_LL_EC_CLK48 CLK48
 608:Drivers/STM32WBxx_HAL_Driver/Inc/stm32wbxx_ll_rcc.h ****   * @{
 609:Drivers/STM32WBxx_HAL_Driver/Inc/stm32wbxx_ll_rcc.h ****   */
 610:Drivers/STM32WBxx_HAL_Driver/Inc/stm32wbxx_ll_rcc.h **** #define LL_RCC_CLK48_CLKSOURCE             RCC_CCIPR_CLK48SEL  /*!< CLK48 clock source selection bi
 611:Drivers/STM32WBxx_HAL_Driver/Inc/stm32wbxx_ll_rcc.h **** /**
 612:Drivers/STM32WBxx_HAL_Driver/Inc/stm32wbxx_ll_rcc.h ****   * @}
 613:Drivers/STM32WBxx_HAL_Driver/Inc/stm32wbxx_ll_rcc.h ****   */
ARM GAS  C:\Users\Joshua\AppData\Local\Temp\cchJYxqO.s 			page 46


 614:Drivers/STM32WBxx_HAL_Driver/Inc/stm32wbxx_ll_rcc.h **** 
 615:Drivers/STM32WBxx_HAL_Driver/Inc/stm32wbxx_ll_rcc.h **** /** @defgroup RCC_LL_EC_USB USB
 616:Drivers/STM32WBxx_HAL_Driver/Inc/stm32wbxx_ll_rcc.h ****   * @{
 617:Drivers/STM32WBxx_HAL_Driver/Inc/stm32wbxx_ll_rcc.h ****   */
 618:Drivers/STM32WBxx_HAL_Driver/Inc/stm32wbxx_ll_rcc.h **** #define LL_RCC_USB_CLKSOURCE               LL_RCC_CLK48_CLKSOURCE  /*!< USB clock source selection 
 619:Drivers/STM32WBxx_HAL_Driver/Inc/stm32wbxx_ll_rcc.h **** /**
 620:Drivers/STM32WBxx_HAL_Driver/Inc/stm32wbxx_ll_rcc.h ****   * @}
 621:Drivers/STM32WBxx_HAL_Driver/Inc/stm32wbxx_ll_rcc.h ****   */
 622:Drivers/STM32WBxx_HAL_Driver/Inc/stm32wbxx_ll_rcc.h **** 
 623:Drivers/STM32WBxx_HAL_Driver/Inc/stm32wbxx_ll_rcc.h **** /** @defgroup RCC_LL_EC_RNG RNG
 624:Drivers/STM32WBxx_HAL_Driver/Inc/stm32wbxx_ll_rcc.h ****   * @{
 625:Drivers/STM32WBxx_HAL_Driver/Inc/stm32wbxx_ll_rcc.h ****   */
 626:Drivers/STM32WBxx_HAL_Driver/Inc/stm32wbxx_ll_rcc.h **** #define LL_RCC_RNG_CLKSOURCE               RCC_CCIPR_RNGSEL  /*!< RNG clock source selection bits *
 627:Drivers/STM32WBxx_HAL_Driver/Inc/stm32wbxx_ll_rcc.h **** /**
 628:Drivers/STM32WBxx_HAL_Driver/Inc/stm32wbxx_ll_rcc.h ****   * @}
 629:Drivers/STM32WBxx_HAL_Driver/Inc/stm32wbxx_ll_rcc.h ****   */
 630:Drivers/STM32WBxx_HAL_Driver/Inc/stm32wbxx_ll_rcc.h **** 
 631:Drivers/STM32WBxx_HAL_Driver/Inc/stm32wbxx_ll_rcc.h **** /** @defgroup RCC_LL_EC_ADC ADC
 632:Drivers/STM32WBxx_HAL_Driver/Inc/stm32wbxx_ll_rcc.h ****   * @{
 633:Drivers/STM32WBxx_HAL_Driver/Inc/stm32wbxx_ll_rcc.h ****   */
 634:Drivers/STM32WBxx_HAL_Driver/Inc/stm32wbxx_ll_rcc.h **** #define LL_RCC_ADC_CLKSOURCE               RCC_CCIPR_ADCSEL   /*!< ADC clock source selection bits 
 635:Drivers/STM32WBxx_HAL_Driver/Inc/stm32wbxx_ll_rcc.h **** /**
 636:Drivers/STM32WBxx_HAL_Driver/Inc/stm32wbxx_ll_rcc.h ****   * @}
 637:Drivers/STM32WBxx_HAL_Driver/Inc/stm32wbxx_ll_rcc.h ****   */
 638:Drivers/STM32WBxx_HAL_Driver/Inc/stm32wbxx_ll_rcc.h **** 
 639:Drivers/STM32WBxx_HAL_Driver/Inc/stm32wbxx_ll_rcc.h **** 
 640:Drivers/STM32WBxx_HAL_Driver/Inc/stm32wbxx_ll_rcc.h **** /** @defgroup RCC_LL_EC_RTC_CLKSOURCE  RTC clock source selection
 641:Drivers/STM32WBxx_HAL_Driver/Inc/stm32wbxx_ll_rcc.h ****   * @{
 642:Drivers/STM32WBxx_HAL_Driver/Inc/stm32wbxx_ll_rcc.h ****   */
 643:Drivers/STM32WBxx_HAL_Driver/Inc/stm32wbxx_ll_rcc.h **** #define LL_RCC_RTC_CLKSOURCE_NONE          0x00000000U                   /*!< No clock used as RTC 
 644:Drivers/STM32WBxx_HAL_Driver/Inc/stm32wbxx_ll_rcc.h **** #define LL_RCC_RTC_CLKSOURCE_LSE           RCC_BDCR_RTCSEL_0             /*!< LSE oscillator clock 
 645:Drivers/STM32WBxx_HAL_Driver/Inc/stm32wbxx_ll_rcc.h **** #define LL_RCC_RTC_CLKSOURCE_LSI           RCC_BDCR_RTCSEL_1             /*!< LSI oscillator clock 
 646:Drivers/STM32WBxx_HAL_Driver/Inc/stm32wbxx_ll_rcc.h **** #define LL_RCC_RTC_CLKSOURCE_HSE_DIV32     RCC_BDCR_RTCSEL               /*!< HSE oscillator clock 
 647:Drivers/STM32WBxx_HAL_Driver/Inc/stm32wbxx_ll_rcc.h **** 
 648:Drivers/STM32WBxx_HAL_Driver/Inc/stm32wbxx_ll_rcc.h **** /**
 649:Drivers/STM32WBxx_HAL_Driver/Inc/stm32wbxx_ll_rcc.h ****   * @}
 650:Drivers/STM32WBxx_HAL_Driver/Inc/stm32wbxx_ll_rcc.h ****   */
 651:Drivers/STM32WBxx_HAL_Driver/Inc/stm32wbxx_ll_rcc.h **** 
 652:Drivers/STM32WBxx_HAL_Driver/Inc/stm32wbxx_ll_rcc.h **** /** @defgroup RCC_LL_EC_RFWKP_CLKSOURCE  RF Wakeup clock source selection
 653:Drivers/STM32WBxx_HAL_Driver/Inc/stm32wbxx_ll_rcc.h ****   * @{
 654:Drivers/STM32WBxx_HAL_Driver/Inc/stm32wbxx_ll_rcc.h ****   */
 655:Drivers/STM32WBxx_HAL_Driver/Inc/stm32wbxx_ll_rcc.h **** #define LL_RCC_RFWKP_CLKSOURCE_NONE          0x00000000U                 /*!< No clock used as RF W
 656:Drivers/STM32WBxx_HAL_Driver/Inc/stm32wbxx_ll_rcc.h **** #define LL_RCC_RFWKP_CLKSOURCE_LSE           RCC_CSR_RFWKPSEL_0          /*!< LSE oscillator clock 
 657:Drivers/STM32WBxx_HAL_Driver/Inc/stm32wbxx_ll_rcc.h **** #if defined(STM32WB15xx) || defined(STM32WB10xx)
 658:Drivers/STM32WBxx_HAL_Driver/Inc/stm32wbxx_ll_rcc.h **** #define LL_RCC_RFWKP_CLKSOURCE_LSI           RCC_CSR_RFWKPSEL_1          /*!< LSI oscillator clock 
 659:Drivers/STM32WBxx_HAL_Driver/Inc/stm32wbxx_ll_rcc.h **** #endif /* STM32WB15xx || STM32WB10xx */
 660:Drivers/STM32WBxx_HAL_Driver/Inc/stm32wbxx_ll_rcc.h **** #define LL_RCC_RFWKP_CLKSOURCE_HSE_DIV1024   RCC_CSR_RFWKPSEL            /*!< HSE oscillator clock 
 661:Drivers/STM32WBxx_HAL_Driver/Inc/stm32wbxx_ll_rcc.h **** 
 662:Drivers/STM32WBxx_HAL_Driver/Inc/stm32wbxx_ll_rcc.h **** /**
 663:Drivers/STM32WBxx_HAL_Driver/Inc/stm32wbxx_ll_rcc.h ****   * @}
 664:Drivers/STM32WBxx_HAL_Driver/Inc/stm32wbxx_ll_rcc.h ****   */
 665:Drivers/STM32WBxx_HAL_Driver/Inc/stm32wbxx_ll_rcc.h **** 
 666:Drivers/STM32WBxx_HAL_Driver/Inc/stm32wbxx_ll_rcc.h **** 
 667:Drivers/STM32WBxx_HAL_Driver/Inc/stm32wbxx_ll_rcc.h **** /** @defgroup RCC_LL_EC_PLLSOURCE  PLL and PLLSAI1 entry clock source
 668:Drivers/STM32WBxx_HAL_Driver/Inc/stm32wbxx_ll_rcc.h ****   * @{
 669:Drivers/STM32WBxx_HAL_Driver/Inc/stm32wbxx_ll_rcc.h ****   */
 670:Drivers/STM32WBxx_HAL_Driver/Inc/stm32wbxx_ll_rcc.h **** #define LL_RCC_PLLSOURCE_NONE              0x00000000U                                    /*!< No c
ARM GAS  C:\Users\Joshua\AppData\Local\Temp\cchJYxqO.s 			page 47


 671:Drivers/STM32WBxx_HAL_Driver/Inc/stm32wbxx_ll_rcc.h **** #define LL_RCC_PLLSOURCE_MSI               RCC_PLLCFGR_PLLSRC_0                           /*!< MSI 
 672:Drivers/STM32WBxx_HAL_Driver/Inc/stm32wbxx_ll_rcc.h **** #define LL_RCC_PLLSOURCE_HSI               RCC_PLLCFGR_PLLSRC_1                           /*!< HSI 
 673:Drivers/STM32WBxx_HAL_Driver/Inc/stm32wbxx_ll_rcc.h **** #define LL_RCC_PLLSOURCE_HSE               (RCC_PLLCFGR_PLLSRC_1 | RCC_PLLCFGR_PLLSRC_0)  /*!< HSE 
 674:Drivers/STM32WBxx_HAL_Driver/Inc/stm32wbxx_ll_rcc.h **** /**
 675:Drivers/STM32WBxx_HAL_Driver/Inc/stm32wbxx_ll_rcc.h ****   * @}
 676:Drivers/STM32WBxx_HAL_Driver/Inc/stm32wbxx_ll_rcc.h ****   */
 677:Drivers/STM32WBxx_HAL_Driver/Inc/stm32wbxx_ll_rcc.h **** 
 678:Drivers/STM32WBxx_HAL_Driver/Inc/stm32wbxx_ll_rcc.h **** /** @defgroup RCC_LL_EC_PLLM_DIV  PLL and PLLSAI1 division factor
 679:Drivers/STM32WBxx_HAL_Driver/Inc/stm32wbxx_ll_rcc.h ****   * @{
 680:Drivers/STM32WBxx_HAL_Driver/Inc/stm32wbxx_ll_rcc.h ****   */
 681:Drivers/STM32WBxx_HAL_Driver/Inc/stm32wbxx_ll_rcc.h **** #define LL_RCC_PLLM_DIV_1                  0x00000000U                                 /*!< PLL and
 682:Drivers/STM32WBxx_HAL_Driver/Inc/stm32wbxx_ll_rcc.h **** #define LL_RCC_PLLM_DIV_2                  (RCC_PLLCFGR_PLLM_0)                        /*!< PLL and
 683:Drivers/STM32WBxx_HAL_Driver/Inc/stm32wbxx_ll_rcc.h **** #define LL_RCC_PLLM_DIV_3                  (RCC_PLLCFGR_PLLM_1)                        /*!< PLL and
 684:Drivers/STM32WBxx_HAL_Driver/Inc/stm32wbxx_ll_rcc.h **** #define LL_RCC_PLLM_DIV_4                  ((RCC_PLLCFGR_PLLM_1 | RCC_PLLCFGR_PLLM_0)) /*!< PLL and
 685:Drivers/STM32WBxx_HAL_Driver/Inc/stm32wbxx_ll_rcc.h **** #define LL_RCC_PLLM_DIV_5                  (RCC_PLLCFGR_PLLM_2)                        /*!< PLL and
 686:Drivers/STM32WBxx_HAL_Driver/Inc/stm32wbxx_ll_rcc.h **** #define LL_RCC_PLLM_DIV_6                  ((RCC_PLLCFGR_PLLM_2 | RCC_PLLCFGR_PLLM_0)) /*!< PLL and
 687:Drivers/STM32WBxx_HAL_Driver/Inc/stm32wbxx_ll_rcc.h **** #define LL_RCC_PLLM_DIV_7                  ((RCC_PLLCFGR_PLLM_2 | RCC_PLLCFGR_PLLM_1)) /*!< PLL and
 688:Drivers/STM32WBxx_HAL_Driver/Inc/stm32wbxx_ll_rcc.h **** #define LL_RCC_PLLM_DIV_8                  (RCC_PLLCFGR_PLLM)                          /*!< PLL and
 689:Drivers/STM32WBxx_HAL_Driver/Inc/stm32wbxx_ll_rcc.h **** /**
 690:Drivers/STM32WBxx_HAL_Driver/Inc/stm32wbxx_ll_rcc.h ****   * @}
 691:Drivers/STM32WBxx_HAL_Driver/Inc/stm32wbxx_ll_rcc.h ****   */
 692:Drivers/STM32WBxx_HAL_Driver/Inc/stm32wbxx_ll_rcc.h **** 
 693:Drivers/STM32WBxx_HAL_Driver/Inc/stm32wbxx_ll_rcc.h **** /** @defgroup RCC_LL_EC_PLLR_DIV  PLL division factor (PLLR)
 694:Drivers/STM32WBxx_HAL_Driver/Inc/stm32wbxx_ll_rcc.h ****   * @{
 695:Drivers/STM32WBxx_HAL_Driver/Inc/stm32wbxx_ll_rcc.h ****   */
 696:Drivers/STM32WBxx_HAL_Driver/Inc/stm32wbxx_ll_rcc.h **** #define LL_RCC_PLLR_DIV_2                  (RCC_PLLCFGR_PLLR_0)                     /*!< Main PLL d
 697:Drivers/STM32WBxx_HAL_Driver/Inc/stm32wbxx_ll_rcc.h **** #define LL_RCC_PLLR_DIV_3                  (RCC_PLLCFGR_PLLR_1)                     /*!< Main PLL d
 698:Drivers/STM32WBxx_HAL_Driver/Inc/stm32wbxx_ll_rcc.h **** #define LL_RCC_PLLR_DIV_4                  (RCC_PLLCFGR_PLLR_1|RCC_PLLCFGR_PLLR_0)  /*!< Main PLL d
 699:Drivers/STM32WBxx_HAL_Driver/Inc/stm32wbxx_ll_rcc.h **** #define LL_RCC_PLLR_DIV_5                  (RCC_PLLCFGR_PLLR_2)                     /*!< Main PLL d
 700:Drivers/STM32WBxx_HAL_Driver/Inc/stm32wbxx_ll_rcc.h **** #define LL_RCC_PLLR_DIV_6                  (RCC_PLLCFGR_PLLR_2|RCC_PLLCFGR_PLLR_0)  /*!< Main PLL d
 701:Drivers/STM32WBxx_HAL_Driver/Inc/stm32wbxx_ll_rcc.h **** #define LL_RCC_PLLR_DIV_7                  (RCC_PLLCFGR_PLLR_2|RCC_PLLCFGR_PLLR_1)  /*!< Main PLL d
 702:Drivers/STM32WBxx_HAL_Driver/Inc/stm32wbxx_ll_rcc.h **** #define LL_RCC_PLLR_DIV_8                  (RCC_PLLCFGR_PLLR)                       /*!< Main PLL d
 703:Drivers/STM32WBxx_HAL_Driver/Inc/stm32wbxx_ll_rcc.h **** /**
 704:Drivers/STM32WBxx_HAL_Driver/Inc/stm32wbxx_ll_rcc.h ****   * @}
 705:Drivers/STM32WBxx_HAL_Driver/Inc/stm32wbxx_ll_rcc.h ****   */
 706:Drivers/STM32WBxx_HAL_Driver/Inc/stm32wbxx_ll_rcc.h **** 
 707:Drivers/STM32WBxx_HAL_Driver/Inc/stm32wbxx_ll_rcc.h **** /** @defgroup RCC_LL_EC_PLLP_DIV  PLL division factor (PLLP)
 708:Drivers/STM32WBxx_HAL_Driver/Inc/stm32wbxx_ll_rcc.h ****   * @{
 709:Drivers/STM32WBxx_HAL_Driver/Inc/stm32wbxx_ll_rcc.h ****   */
 710:Drivers/STM32WBxx_HAL_Driver/Inc/stm32wbxx_ll_rcc.h **** #define LL_RCC_PLLP_DIV_2                  (RCC_PLLCFGR_PLLP_0)                                    
 711:Drivers/STM32WBxx_HAL_Driver/Inc/stm32wbxx_ll_rcc.h **** #define LL_RCC_PLLP_DIV_3                  (RCC_PLLCFGR_PLLP_1)                                    
 712:Drivers/STM32WBxx_HAL_Driver/Inc/stm32wbxx_ll_rcc.h **** #define LL_RCC_PLLP_DIV_4                  (RCC_PLLCFGR_PLLP_0|RCC_PLLCFGR_PLLP_1)                 
 713:Drivers/STM32WBxx_HAL_Driver/Inc/stm32wbxx_ll_rcc.h **** #define LL_RCC_PLLP_DIV_5                  (RCC_PLLCFGR_PLLP_2)                                    
 714:Drivers/STM32WBxx_HAL_Driver/Inc/stm32wbxx_ll_rcc.h **** #define LL_RCC_PLLP_DIV_6                  (RCC_PLLCFGR_PLLP_0|RCC_PLLCFGR_PLLP_2)                 
 715:Drivers/STM32WBxx_HAL_Driver/Inc/stm32wbxx_ll_rcc.h **** #define LL_RCC_PLLP_DIV_7                  (RCC_PLLCFGR_PLLP_1|RCC_PLLCFGR_PLLP_2)                 
 716:Drivers/STM32WBxx_HAL_Driver/Inc/stm32wbxx_ll_rcc.h **** #define LL_RCC_PLLP_DIV_8                  (RCC_PLLCFGR_PLLP_0|RCC_PLLCFGR_PLLP_1|RCC_PLLCFGR_PLLP_
 717:Drivers/STM32WBxx_HAL_Driver/Inc/stm32wbxx_ll_rcc.h **** #define LL_RCC_PLLP_DIV_9                  (RCC_PLLCFGR_PLLP_3)                                    
 718:Drivers/STM32WBxx_HAL_Driver/Inc/stm32wbxx_ll_rcc.h **** #define LL_RCC_PLLP_DIV_10                 (RCC_PLLCFGR_PLLP_0|RCC_PLLCFGR_PLLP_3)                 
 719:Drivers/STM32WBxx_HAL_Driver/Inc/stm32wbxx_ll_rcc.h **** #define LL_RCC_PLLP_DIV_11                 (RCC_PLLCFGR_PLLP_1|RCC_PLLCFGR_PLLP_3)                 
 720:Drivers/STM32WBxx_HAL_Driver/Inc/stm32wbxx_ll_rcc.h **** #define LL_RCC_PLLP_DIV_12                 (RCC_PLLCFGR_PLLP_0|RCC_PLLCFGR_PLLP_1|RCC_PLLCFGR_PLLP_
 721:Drivers/STM32WBxx_HAL_Driver/Inc/stm32wbxx_ll_rcc.h **** #define LL_RCC_PLLP_DIV_13                 (RCC_PLLCFGR_PLLP_2|RCC_PLLCFGR_PLLP_3)                 
 722:Drivers/STM32WBxx_HAL_Driver/Inc/stm32wbxx_ll_rcc.h **** #define LL_RCC_PLLP_DIV_14                 (RCC_PLLCFGR_PLLP_0|RCC_PLLCFGR_PLLP_2|RCC_PLLCFGR_PLLP_
 723:Drivers/STM32WBxx_HAL_Driver/Inc/stm32wbxx_ll_rcc.h **** #define LL_RCC_PLLP_DIV_15                 (RCC_PLLCFGR_PLLP_1|RCC_PLLCFGR_PLLP_2|RCC_PLLCFGR_PLLP_
 724:Drivers/STM32WBxx_HAL_Driver/Inc/stm32wbxx_ll_rcc.h **** #define LL_RCC_PLLP_DIV_16                 (RCC_PLLCFGR_PLLP_0|RCC_PLLCFGR_PLLP_1|RCC_PLLCFGR_PLLP_
 725:Drivers/STM32WBxx_HAL_Driver/Inc/stm32wbxx_ll_rcc.h **** #define LL_RCC_PLLP_DIV_17                 (RCC_PLLCFGR_PLLP_4)                                    
 726:Drivers/STM32WBxx_HAL_Driver/Inc/stm32wbxx_ll_rcc.h **** #define LL_RCC_PLLP_DIV_18                 (RCC_PLLCFGR_PLLP_0|RCC_PLLCFGR_PLLP_4)                 
 727:Drivers/STM32WBxx_HAL_Driver/Inc/stm32wbxx_ll_rcc.h **** #define LL_RCC_PLLP_DIV_19                 (RCC_PLLCFGR_PLLP_1|RCC_PLLCFGR_PLLP_4)                 
ARM GAS  C:\Users\Joshua\AppData\Local\Temp\cchJYxqO.s 			page 48


 728:Drivers/STM32WBxx_HAL_Driver/Inc/stm32wbxx_ll_rcc.h **** #define LL_RCC_PLLP_DIV_20                 (RCC_PLLCFGR_PLLP_0|RCC_PLLCFGR_PLLP_1|RCC_PLLCFGR_PLLP_
 729:Drivers/STM32WBxx_HAL_Driver/Inc/stm32wbxx_ll_rcc.h **** #define LL_RCC_PLLP_DIV_21                 (RCC_PLLCFGR_PLLP_2|RCC_PLLCFGR_PLLP_4)                 
 730:Drivers/STM32WBxx_HAL_Driver/Inc/stm32wbxx_ll_rcc.h **** #define LL_RCC_PLLP_DIV_22                 (RCC_PLLCFGR_PLLP_0|RCC_PLLCFGR_PLLP_2|RCC_PLLCFGR_PLLP_
 731:Drivers/STM32WBxx_HAL_Driver/Inc/stm32wbxx_ll_rcc.h **** #define LL_RCC_PLLP_DIV_23                 (RCC_PLLCFGR_PLLP_1|RCC_PLLCFGR_PLLP_2|RCC_PLLCFGR_PLLP_
 732:Drivers/STM32WBxx_HAL_Driver/Inc/stm32wbxx_ll_rcc.h **** #define LL_RCC_PLLP_DIV_24                 (RCC_PLLCFGR_PLLP_0|RCC_PLLCFGR_PLLP_1|RCC_PLLCFGR_PLLP_
 733:Drivers/STM32WBxx_HAL_Driver/Inc/stm32wbxx_ll_rcc.h **** #define LL_RCC_PLLP_DIV_25                 (RCC_PLLCFGR_PLLP_3|RCC_PLLCFGR_PLLP_4)                 
 734:Drivers/STM32WBxx_HAL_Driver/Inc/stm32wbxx_ll_rcc.h **** #define LL_RCC_PLLP_DIV_26                 (RCC_PLLCFGR_PLLP_0|RCC_PLLCFGR_PLLP_3|RCC_PLLCFGR_PLLP_
 735:Drivers/STM32WBxx_HAL_Driver/Inc/stm32wbxx_ll_rcc.h **** #define LL_RCC_PLLP_DIV_27                 (RCC_PLLCFGR_PLLP_1|RCC_PLLCFGR_PLLP_3|RCC_PLLCFGR_PLLP_
 736:Drivers/STM32WBxx_HAL_Driver/Inc/stm32wbxx_ll_rcc.h **** #define LL_RCC_PLLP_DIV_28                 (RCC_PLLCFGR_PLLP_0|RCC_PLLCFGR_PLLP_1|RCC_PLLCFGR_PLLP_
 737:Drivers/STM32WBxx_HAL_Driver/Inc/stm32wbxx_ll_rcc.h **** #define LL_RCC_PLLP_DIV_29                 (RCC_PLLCFGR_PLLP_2|RCC_PLLCFGR_PLLP_3|RCC_PLLCFGR_PLLP_
 738:Drivers/STM32WBxx_HAL_Driver/Inc/stm32wbxx_ll_rcc.h **** #define LL_RCC_PLLP_DIV_30                 (RCC_PLLCFGR_PLLP_0|RCC_PLLCFGR_PLLP_2|RCC_PLLCFGR_PLLP_
 739:Drivers/STM32WBxx_HAL_Driver/Inc/stm32wbxx_ll_rcc.h **** #define LL_RCC_PLLP_DIV_31                 (RCC_PLLCFGR_PLLP_1|RCC_PLLCFGR_PLLP_2|RCC_PLLCFGR_PLLP_
 740:Drivers/STM32WBxx_HAL_Driver/Inc/stm32wbxx_ll_rcc.h **** #define LL_RCC_PLLP_DIV_32                 (RCC_PLLCFGR_PLLP_0|RCC_PLLCFGR_PLLP_1|RCC_PLLCFGR_PLLP_
 741:Drivers/STM32WBxx_HAL_Driver/Inc/stm32wbxx_ll_rcc.h **** /**
 742:Drivers/STM32WBxx_HAL_Driver/Inc/stm32wbxx_ll_rcc.h ****   * @}
 743:Drivers/STM32WBxx_HAL_Driver/Inc/stm32wbxx_ll_rcc.h ****   */
 744:Drivers/STM32WBxx_HAL_Driver/Inc/stm32wbxx_ll_rcc.h **** 
 745:Drivers/STM32WBxx_HAL_Driver/Inc/stm32wbxx_ll_rcc.h **** /** @defgroup RCC_LL_EC_PLLQ_DIV  PLL division factor (PLLQ)
 746:Drivers/STM32WBxx_HAL_Driver/Inc/stm32wbxx_ll_rcc.h ****   * @{
 747:Drivers/STM32WBxx_HAL_Driver/Inc/stm32wbxx_ll_rcc.h ****   */
 748:Drivers/STM32WBxx_HAL_Driver/Inc/stm32wbxx_ll_rcc.h **** #define LL_RCC_PLLQ_DIV_2                  (RCC_PLLCFGR_PLLQ_0)                    /*!< Main PLL di
 749:Drivers/STM32WBxx_HAL_Driver/Inc/stm32wbxx_ll_rcc.h **** #define LL_RCC_PLLQ_DIV_3                  (RCC_PLLCFGR_PLLQ_1)                    /*!< Main PLL di
 750:Drivers/STM32WBxx_HAL_Driver/Inc/stm32wbxx_ll_rcc.h **** #define LL_RCC_PLLQ_DIV_4                  (RCC_PLLCFGR_PLLQ_1|RCC_PLLCFGR_PLLQ_0) /*!< Main PLL di
 751:Drivers/STM32WBxx_HAL_Driver/Inc/stm32wbxx_ll_rcc.h **** #define LL_RCC_PLLQ_DIV_5                  (RCC_PLLCFGR_PLLQ_2)                    /*!< Main PLL di
 752:Drivers/STM32WBxx_HAL_Driver/Inc/stm32wbxx_ll_rcc.h **** #define LL_RCC_PLLQ_DIV_6                  (RCC_PLLCFGR_PLLQ_2|RCC_PLLCFGR_PLLQ_0) /*!< Main PLL di
 753:Drivers/STM32WBxx_HAL_Driver/Inc/stm32wbxx_ll_rcc.h **** #define LL_RCC_PLLQ_DIV_7                  (RCC_PLLCFGR_PLLQ_2|RCC_PLLCFGR_PLLQ_1) /*!< Main PLL di
 754:Drivers/STM32WBxx_HAL_Driver/Inc/stm32wbxx_ll_rcc.h **** #define LL_RCC_PLLQ_DIV_8                  (RCC_PLLCFGR_PLLQ)                      /*!< Main PLL di
 755:Drivers/STM32WBxx_HAL_Driver/Inc/stm32wbxx_ll_rcc.h **** /**
 756:Drivers/STM32WBxx_HAL_Driver/Inc/stm32wbxx_ll_rcc.h ****   * @}
 757:Drivers/STM32WBxx_HAL_Driver/Inc/stm32wbxx_ll_rcc.h ****   */
 758:Drivers/STM32WBxx_HAL_Driver/Inc/stm32wbxx_ll_rcc.h **** 
 759:Drivers/STM32WBxx_HAL_Driver/Inc/stm32wbxx_ll_rcc.h **** 
 760:Drivers/STM32WBxx_HAL_Driver/Inc/stm32wbxx_ll_rcc.h **** #if defined(SAI1)
 761:Drivers/STM32WBxx_HAL_Driver/Inc/stm32wbxx_ll_rcc.h **** /** @defgroup RCC_LL_EC_PLLSAI1Q  PLLSAI1 division factor (PLLQ)
 762:Drivers/STM32WBxx_HAL_Driver/Inc/stm32wbxx_ll_rcc.h ****   * @{
 763:Drivers/STM32WBxx_HAL_Driver/Inc/stm32wbxx_ll_rcc.h ****   */
 764:Drivers/STM32WBxx_HAL_Driver/Inc/stm32wbxx_ll_rcc.h **** #define LL_RCC_PLLSAI1Q_DIV_2              (RCC_PLLSAI1CFGR_PLLQ_0)                                
 765:Drivers/STM32WBxx_HAL_Driver/Inc/stm32wbxx_ll_rcc.h **** #define LL_RCC_PLLSAI1Q_DIV_3              (RCC_PLLSAI1CFGR_PLLQ_1)                                
 766:Drivers/STM32WBxx_HAL_Driver/Inc/stm32wbxx_ll_rcc.h **** #define LL_RCC_PLLSAI1Q_DIV_4              (RCC_PLLSAI1CFGR_PLLQ_1 | RCC_PLLSAI1CFGR_PLLQ_0)       
 767:Drivers/STM32WBxx_HAL_Driver/Inc/stm32wbxx_ll_rcc.h **** #define LL_RCC_PLLSAI1Q_DIV_5              (RCC_PLLSAI1CFGR_PLLQ_2)                                
 768:Drivers/STM32WBxx_HAL_Driver/Inc/stm32wbxx_ll_rcc.h **** #define LL_RCC_PLLSAI1Q_DIV_6              (RCC_PLLSAI1CFGR_PLLQ_2 | RCC_PLLSAI1CFGR_PLLQ_0)       
 769:Drivers/STM32WBxx_HAL_Driver/Inc/stm32wbxx_ll_rcc.h **** #define LL_RCC_PLLSAI1Q_DIV_7              (RCC_PLLSAI1CFGR_PLLQ_2 | RCC_PLLSAI1CFGR_PLLQ_1)       
 770:Drivers/STM32WBxx_HAL_Driver/Inc/stm32wbxx_ll_rcc.h **** #define LL_RCC_PLLSAI1Q_DIV_8              (RCC_PLLSAI1CFGR_PLLQ_2 | RCC_PLLSAI1CFGR_PLLQ_1 | RCC_P
 771:Drivers/STM32WBxx_HAL_Driver/Inc/stm32wbxx_ll_rcc.h **** /**
 772:Drivers/STM32WBxx_HAL_Driver/Inc/stm32wbxx_ll_rcc.h ****   * @}
 773:Drivers/STM32WBxx_HAL_Driver/Inc/stm32wbxx_ll_rcc.h ****   */
 774:Drivers/STM32WBxx_HAL_Driver/Inc/stm32wbxx_ll_rcc.h **** 
 775:Drivers/STM32WBxx_HAL_Driver/Inc/stm32wbxx_ll_rcc.h **** /** @defgroup RCC_LL_EC_PLLSAI1P  PLLSAI1 division factor (PLLP)
 776:Drivers/STM32WBxx_HAL_Driver/Inc/stm32wbxx_ll_rcc.h ****   * @{
 777:Drivers/STM32WBxx_HAL_Driver/Inc/stm32wbxx_ll_rcc.h ****   */
 778:Drivers/STM32WBxx_HAL_Driver/Inc/stm32wbxx_ll_rcc.h **** #define LL_RCC_PLLSAI1P_DIV_2                  (RCC_PLLSAI1CFGR_PLLP_0)                            
 779:Drivers/STM32WBxx_HAL_Driver/Inc/stm32wbxx_ll_rcc.h **** #define LL_RCC_PLLSAI1P_DIV_3                  (RCC_PLLSAI1CFGR_PLLP_1)                            
 780:Drivers/STM32WBxx_HAL_Driver/Inc/stm32wbxx_ll_rcc.h **** #define LL_RCC_PLLSAI1P_DIV_4                  (RCC_PLLSAI1CFGR_PLLP_0|RCC_PLLSAI1CFGR_PLLP_1)     
 781:Drivers/STM32WBxx_HAL_Driver/Inc/stm32wbxx_ll_rcc.h **** #define LL_RCC_PLLSAI1P_DIV_5                  (RCC_PLLSAI1CFGR_PLLP_2)                            
 782:Drivers/STM32WBxx_HAL_Driver/Inc/stm32wbxx_ll_rcc.h **** #define LL_RCC_PLLSAI1P_DIV_6                  (RCC_PLLSAI1CFGR_PLLP_0|RCC_PLLSAI1CFGR_PLLP_2)     
 783:Drivers/STM32WBxx_HAL_Driver/Inc/stm32wbxx_ll_rcc.h **** #define LL_RCC_PLLSAI1P_DIV_7                  (RCC_PLLSAI1CFGR_PLLP_1|RCC_PLLSAI1CFGR_PLLP_2)     
 784:Drivers/STM32WBxx_HAL_Driver/Inc/stm32wbxx_ll_rcc.h **** #define LL_RCC_PLLSAI1P_DIV_8                  (RCC_PLLSAI1CFGR_PLLP_0|RCC_PLLSAI1CFGR_PLLP_1|RCC_P
ARM GAS  C:\Users\Joshua\AppData\Local\Temp\cchJYxqO.s 			page 49


 785:Drivers/STM32WBxx_HAL_Driver/Inc/stm32wbxx_ll_rcc.h **** #define LL_RCC_PLLSAI1P_DIV_9                  (RCC_PLLSAI1CFGR_PLLP_3)                            
 786:Drivers/STM32WBxx_HAL_Driver/Inc/stm32wbxx_ll_rcc.h **** #define LL_RCC_PLLSAI1P_DIV_10                 (RCC_PLLSAI1CFGR_PLLP_0|RCC_PLLSAI1CFGR_PLLP_3)     
 787:Drivers/STM32WBxx_HAL_Driver/Inc/stm32wbxx_ll_rcc.h **** #define LL_RCC_PLLSAI1P_DIV_11                 (RCC_PLLSAI1CFGR_PLLP_1|RCC_PLLSAI1CFGR_PLLP_3)     
 788:Drivers/STM32WBxx_HAL_Driver/Inc/stm32wbxx_ll_rcc.h **** #define LL_RCC_PLLSAI1P_DIV_12                 (RCC_PLLSAI1CFGR_PLLP_0|RCC_PLLSAI1CFGR_PLLP_1|RCC_P
 789:Drivers/STM32WBxx_HAL_Driver/Inc/stm32wbxx_ll_rcc.h **** #define LL_RCC_PLLSAI1P_DIV_13                 (RCC_PLLSAI1CFGR_PLLP_2|RCC_PLLSAI1CFGR_PLLP_3)     
 790:Drivers/STM32WBxx_HAL_Driver/Inc/stm32wbxx_ll_rcc.h **** #define LL_RCC_PLLSAI1P_DIV_14                 (RCC_PLLSAI1CFGR_PLLP_0|RCC_PLLSAI1CFGR_PLLP_2|RCC_P
 791:Drivers/STM32WBxx_HAL_Driver/Inc/stm32wbxx_ll_rcc.h **** #define LL_RCC_PLLSAI1P_DIV_15                 (RCC_PLLSAI1CFGR_PLLP_1|RCC_PLLSAI1CFGR_PLLP_2|RCC_P
 792:Drivers/STM32WBxx_HAL_Driver/Inc/stm32wbxx_ll_rcc.h **** #define LL_RCC_PLLSAI1P_DIV_16                 (RCC_PLLSAI1CFGR_PLLP_0|RCC_PLLSAI1CFGR_PLLP_1|RCC_P
 793:Drivers/STM32WBxx_HAL_Driver/Inc/stm32wbxx_ll_rcc.h **** #define LL_RCC_PLLSAI1P_DIV_17                 (RCC_PLLSAI1CFGR_PLLP_4)                            
 794:Drivers/STM32WBxx_HAL_Driver/Inc/stm32wbxx_ll_rcc.h **** #define LL_RCC_PLLSAI1P_DIV_18                 (RCC_PLLSAI1CFGR_PLLP_0|RCC_PLLSAI1CFGR_PLLP_4)     
 795:Drivers/STM32WBxx_HAL_Driver/Inc/stm32wbxx_ll_rcc.h **** #define LL_RCC_PLLSAI1P_DIV_19                 (RCC_PLLSAI1CFGR_PLLP_1|RCC_PLLSAI1CFGR_PLLP_4)     
 796:Drivers/STM32WBxx_HAL_Driver/Inc/stm32wbxx_ll_rcc.h **** #define LL_RCC_PLLSAI1P_DIV_20                 (RCC_PLLSAI1CFGR_PLLP_0|RCC_PLLSAI1CFGR_PLLP_1|RCC_P
 797:Drivers/STM32WBxx_HAL_Driver/Inc/stm32wbxx_ll_rcc.h **** #define LL_RCC_PLLSAI1P_DIV_21                 (RCC_PLLSAI1CFGR_PLLP_2|RCC_PLLSAI1CFGR_PLLP_4)     
 798:Drivers/STM32WBxx_HAL_Driver/Inc/stm32wbxx_ll_rcc.h **** #define LL_RCC_PLLSAI1P_DIV_22                 (RCC_PLLSAI1CFGR_PLLP_0|RCC_PLLSAI1CFGR_PLLP_2|RCC_P
 799:Drivers/STM32WBxx_HAL_Driver/Inc/stm32wbxx_ll_rcc.h **** #define LL_RCC_PLLSAI1P_DIV_23                 (RCC_PLLSAI1CFGR_PLLP_1|RCC_PLLSAI1CFGR_PLLP_2|RCC_P
 800:Drivers/STM32WBxx_HAL_Driver/Inc/stm32wbxx_ll_rcc.h **** #define LL_RCC_PLLSAI1P_DIV_24                 (RCC_PLLSAI1CFGR_PLLP_0|RCC_PLLSAI1CFGR_PLLP_1|RCC_P
 801:Drivers/STM32WBxx_HAL_Driver/Inc/stm32wbxx_ll_rcc.h **** #define LL_RCC_PLLSAI1P_DIV_25                 (RCC_PLLSAI1CFGR_PLLP_3|RCC_PLLSAI1CFGR_PLLP_4)     
 802:Drivers/STM32WBxx_HAL_Driver/Inc/stm32wbxx_ll_rcc.h **** #define LL_RCC_PLLSAI1P_DIV_26                 (RCC_PLLSAI1CFGR_PLLP_0|RCC_PLLSAI1CFGR_PLLP_3|RCC_P
 803:Drivers/STM32WBxx_HAL_Driver/Inc/stm32wbxx_ll_rcc.h **** #define LL_RCC_PLLSAI1P_DIV_27                 (RCC_PLLSAI1CFGR_PLLP_1|RCC_PLLSAI1CFGR_PLLP_3|RCC_P
 804:Drivers/STM32WBxx_HAL_Driver/Inc/stm32wbxx_ll_rcc.h **** #define LL_RCC_PLLSAI1P_DIV_28                 (RCC_PLLSAI1CFGR_PLLP_0|RCC_PLLSAI1CFGR_PLLP_1|RCC_P
 805:Drivers/STM32WBxx_HAL_Driver/Inc/stm32wbxx_ll_rcc.h **** #define LL_RCC_PLLSAI1P_DIV_29                 (RCC_PLLSAI1CFGR_PLLP_2|RCC_PLLSAI1CFGR_PLLP_3|RCC_P
 806:Drivers/STM32WBxx_HAL_Driver/Inc/stm32wbxx_ll_rcc.h **** #define LL_RCC_PLLSAI1P_DIV_30                 (RCC_PLLSAI1CFGR_PLLP_0|RCC_PLLSAI1CFGR_PLLP_2|RCC_P
 807:Drivers/STM32WBxx_HAL_Driver/Inc/stm32wbxx_ll_rcc.h **** #define LL_RCC_PLLSAI1P_DIV_31                 (RCC_PLLSAI1CFGR_PLLP_1|RCC_PLLSAI1CFGR_PLLP_2|RCC_P
 808:Drivers/STM32WBxx_HAL_Driver/Inc/stm32wbxx_ll_rcc.h **** #define LL_RCC_PLLSAI1P_DIV_32                 (RCC_PLLSAI1CFGR_PLLP_0|RCC_PLLSAI1CFGR_PLLP_1|RCC_P
 809:Drivers/STM32WBxx_HAL_Driver/Inc/stm32wbxx_ll_rcc.h **** /**
 810:Drivers/STM32WBxx_HAL_Driver/Inc/stm32wbxx_ll_rcc.h ****   * @}
 811:Drivers/STM32WBxx_HAL_Driver/Inc/stm32wbxx_ll_rcc.h ****   */
 812:Drivers/STM32WBxx_HAL_Driver/Inc/stm32wbxx_ll_rcc.h **** 
 813:Drivers/STM32WBxx_HAL_Driver/Inc/stm32wbxx_ll_rcc.h **** /** @defgroup RCC_LL_EC_PLLSAI1R  PLLSAI1 division factor (PLLR)
 814:Drivers/STM32WBxx_HAL_Driver/Inc/stm32wbxx_ll_rcc.h ****   * @{
 815:Drivers/STM32WBxx_HAL_Driver/Inc/stm32wbxx_ll_rcc.h ****   */
 816:Drivers/STM32WBxx_HAL_Driver/Inc/stm32wbxx_ll_rcc.h **** #define LL_RCC_PLLSAI1R_DIV_2              (RCC_PLLSAI1CFGR_PLLR_0)                                
 817:Drivers/STM32WBxx_HAL_Driver/Inc/stm32wbxx_ll_rcc.h **** #define LL_RCC_PLLSAI1R_DIV_3              (RCC_PLLSAI1CFGR_PLLR_1)                                
 818:Drivers/STM32WBxx_HAL_Driver/Inc/stm32wbxx_ll_rcc.h **** #define LL_RCC_PLLSAI1R_DIV_4              (RCC_PLLSAI1CFGR_PLLR_1 | RCC_PLLSAI1CFGR_PLLR_0)       
 819:Drivers/STM32WBxx_HAL_Driver/Inc/stm32wbxx_ll_rcc.h **** #define LL_RCC_PLLSAI1R_DIV_5              (RCC_PLLSAI1CFGR_PLLR_2)                                
 820:Drivers/STM32WBxx_HAL_Driver/Inc/stm32wbxx_ll_rcc.h **** #define LL_RCC_PLLSAI1R_DIV_6              (RCC_PLLSAI1CFGR_PLLR_2 | RCC_PLLSAI1CFGR_PLLR_0)       
 821:Drivers/STM32WBxx_HAL_Driver/Inc/stm32wbxx_ll_rcc.h **** #define LL_RCC_PLLSAI1R_DIV_7              (RCC_PLLSAI1CFGR_PLLR_2 | RCC_PLLSAI1CFGR_PLLR_1)       
 822:Drivers/STM32WBxx_HAL_Driver/Inc/stm32wbxx_ll_rcc.h **** #define LL_RCC_PLLSAI1R_DIV_8              (RCC_PLLSAI1CFGR_PLLR_2 | RCC_PLLSAI1CFGR_PLLR_1 | RCC_P
 823:Drivers/STM32WBxx_HAL_Driver/Inc/stm32wbxx_ll_rcc.h **** /**
 824:Drivers/STM32WBxx_HAL_Driver/Inc/stm32wbxx_ll_rcc.h ****   * @}
 825:Drivers/STM32WBxx_HAL_Driver/Inc/stm32wbxx_ll_rcc.h ****   */
 826:Drivers/STM32WBxx_HAL_Driver/Inc/stm32wbxx_ll_rcc.h **** #endif /* SAI1 */
 827:Drivers/STM32WBxx_HAL_Driver/Inc/stm32wbxx_ll_rcc.h **** 
 828:Drivers/STM32WBxx_HAL_Driver/Inc/stm32wbxx_ll_rcc.h **** /**
 829:Drivers/STM32WBxx_HAL_Driver/Inc/stm32wbxx_ll_rcc.h ****   * @}
 830:Drivers/STM32WBxx_HAL_Driver/Inc/stm32wbxx_ll_rcc.h ****   */
 831:Drivers/STM32WBxx_HAL_Driver/Inc/stm32wbxx_ll_rcc.h **** 
 832:Drivers/STM32WBxx_HAL_Driver/Inc/stm32wbxx_ll_rcc.h **** /* Exported macro ------------------------------------------------------------*/
 833:Drivers/STM32WBxx_HAL_Driver/Inc/stm32wbxx_ll_rcc.h **** /** @defgroup RCC_LL_Exported_Macros RCC Exported Macros
 834:Drivers/STM32WBxx_HAL_Driver/Inc/stm32wbxx_ll_rcc.h ****   * @{
 835:Drivers/STM32WBxx_HAL_Driver/Inc/stm32wbxx_ll_rcc.h ****   */
 836:Drivers/STM32WBxx_HAL_Driver/Inc/stm32wbxx_ll_rcc.h **** 
 837:Drivers/STM32WBxx_HAL_Driver/Inc/stm32wbxx_ll_rcc.h **** /** @defgroup RCC_LL_EM_WRITE_READ Common Write and read registers Macros
 838:Drivers/STM32WBxx_HAL_Driver/Inc/stm32wbxx_ll_rcc.h ****   * @{
 839:Drivers/STM32WBxx_HAL_Driver/Inc/stm32wbxx_ll_rcc.h ****   */
 840:Drivers/STM32WBxx_HAL_Driver/Inc/stm32wbxx_ll_rcc.h **** 
 841:Drivers/STM32WBxx_HAL_Driver/Inc/stm32wbxx_ll_rcc.h **** /**
ARM GAS  C:\Users\Joshua\AppData\Local\Temp\cchJYxqO.s 			page 50


 842:Drivers/STM32WBxx_HAL_Driver/Inc/stm32wbxx_ll_rcc.h ****   * @brief  Write a value in RCC register
 843:Drivers/STM32WBxx_HAL_Driver/Inc/stm32wbxx_ll_rcc.h ****   * @param  __REG__ Register to be written
 844:Drivers/STM32WBxx_HAL_Driver/Inc/stm32wbxx_ll_rcc.h ****   * @param  __VALUE__ Value to be written in the register
 845:Drivers/STM32WBxx_HAL_Driver/Inc/stm32wbxx_ll_rcc.h ****   * @retval None
 846:Drivers/STM32WBxx_HAL_Driver/Inc/stm32wbxx_ll_rcc.h ****   */
 847:Drivers/STM32WBxx_HAL_Driver/Inc/stm32wbxx_ll_rcc.h **** #define LL_RCC_WriteReg(__REG__, __VALUE__) WRITE_REG(RCC->__REG__, (__VALUE__))
 848:Drivers/STM32WBxx_HAL_Driver/Inc/stm32wbxx_ll_rcc.h **** 
 849:Drivers/STM32WBxx_HAL_Driver/Inc/stm32wbxx_ll_rcc.h **** /**
 850:Drivers/STM32WBxx_HAL_Driver/Inc/stm32wbxx_ll_rcc.h ****   * @brief  Read a value in RCC register
 851:Drivers/STM32WBxx_HAL_Driver/Inc/stm32wbxx_ll_rcc.h ****   * @param  __REG__ Register to be read
 852:Drivers/STM32WBxx_HAL_Driver/Inc/stm32wbxx_ll_rcc.h ****   * @retval Register value
 853:Drivers/STM32WBxx_HAL_Driver/Inc/stm32wbxx_ll_rcc.h ****   */
 854:Drivers/STM32WBxx_HAL_Driver/Inc/stm32wbxx_ll_rcc.h **** #define LL_RCC_ReadReg(__REG__) READ_REG(RCC->__REG__)
 855:Drivers/STM32WBxx_HAL_Driver/Inc/stm32wbxx_ll_rcc.h **** /**
 856:Drivers/STM32WBxx_HAL_Driver/Inc/stm32wbxx_ll_rcc.h ****   * @}
 857:Drivers/STM32WBxx_HAL_Driver/Inc/stm32wbxx_ll_rcc.h ****   */
 858:Drivers/STM32WBxx_HAL_Driver/Inc/stm32wbxx_ll_rcc.h **** 
 859:Drivers/STM32WBxx_HAL_Driver/Inc/stm32wbxx_ll_rcc.h **** /** @defgroup RCC_LL_EM_CALC_FREQ Calculate frequencies
 860:Drivers/STM32WBxx_HAL_Driver/Inc/stm32wbxx_ll_rcc.h ****   * @{
 861:Drivers/STM32WBxx_HAL_Driver/Inc/stm32wbxx_ll_rcc.h ****   */
 862:Drivers/STM32WBxx_HAL_Driver/Inc/stm32wbxx_ll_rcc.h **** 
 863:Drivers/STM32WBxx_HAL_Driver/Inc/stm32wbxx_ll_rcc.h **** /**
 864:Drivers/STM32WBxx_HAL_Driver/Inc/stm32wbxx_ll_rcc.h ****   * @brief  Helper macro to calculate the PLLRCLK frequency on system domain
 865:Drivers/STM32WBxx_HAL_Driver/Inc/stm32wbxx_ll_rcc.h ****   * @note ex: @ref __LL_RCC_CALC_PLLCLK_FREQ (HSE_VALUE,@ref LL_RCC_PLL_GetDivider (),
 866:Drivers/STM32WBxx_HAL_Driver/Inc/stm32wbxx_ll_rcc.h ****   *             @ref LL_RCC_PLL_GetN (), @ref LL_RCC_PLL_GetR ());
 867:Drivers/STM32WBxx_HAL_Driver/Inc/stm32wbxx_ll_rcc.h ****   * @param  __INPUTFREQ__ PLL Input frequency (based on MSI/HSE/HSI)
 868:Drivers/STM32WBxx_HAL_Driver/Inc/stm32wbxx_ll_rcc.h ****   * @param  __PLLM__ This parameter can be one of the following values:
 869:Drivers/STM32WBxx_HAL_Driver/Inc/stm32wbxx_ll_rcc.h ****   *         @arg @ref LL_RCC_PLLM_DIV_1
 870:Drivers/STM32WBxx_HAL_Driver/Inc/stm32wbxx_ll_rcc.h ****   *         @arg @ref LL_RCC_PLLM_DIV_2
 871:Drivers/STM32WBxx_HAL_Driver/Inc/stm32wbxx_ll_rcc.h ****   *         @arg @ref LL_RCC_PLLM_DIV_3
 872:Drivers/STM32WBxx_HAL_Driver/Inc/stm32wbxx_ll_rcc.h ****   *         @arg @ref LL_RCC_PLLM_DIV_4
 873:Drivers/STM32WBxx_HAL_Driver/Inc/stm32wbxx_ll_rcc.h ****   *         @arg @ref LL_RCC_PLLM_DIV_5
 874:Drivers/STM32WBxx_HAL_Driver/Inc/stm32wbxx_ll_rcc.h ****   *         @arg @ref LL_RCC_PLLM_DIV_6
 875:Drivers/STM32WBxx_HAL_Driver/Inc/stm32wbxx_ll_rcc.h ****   *         @arg @ref LL_RCC_PLLM_DIV_7
 876:Drivers/STM32WBxx_HAL_Driver/Inc/stm32wbxx_ll_rcc.h ****   *         @arg @ref LL_RCC_PLLM_DIV_8
 877:Drivers/STM32WBxx_HAL_Driver/Inc/stm32wbxx_ll_rcc.h ****   * @param  __PLLN__ Between Min_Data = 6 and Max_Data = 127
 878:Drivers/STM32WBxx_HAL_Driver/Inc/stm32wbxx_ll_rcc.h ****   * @param  __PLLR__ This parameter can be one of the following values:
 879:Drivers/STM32WBxx_HAL_Driver/Inc/stm32wbxx_ll_rcc.h ****   *         @arg @ref LL_RCC_PLLR_DIV_2
 880:Drivers/STM32WBxx_HAL_Driver/Inc/stm32wbxx_ll_rcc.h ****   *         @arg @ref LL_RCC_PLLR_DIV_3
 881:Drivers/STM32WBxx_HAL_Driver/Inc/stm32wbxx_ll_rcc.h ****   *         @arg @ref LL_RCC_PLLR_DIV_4
 882:Drivers/STM32WBxx_HAL_Driver/Inc/stm32wbxx_ll_rcc.h ****   *         @arg @ref LL_RCC_PLLR_DIV_5
 883:Drivers/STM32WBxx_HAL_Driver/Inc/stm32wbxx_ll_rcc.h ****   *         @arg @ref LL_RCC_PLLR_DIV_6
 884:Drivers/STM32WBxx_HAL_Driver/Inc/stm32wbxx_ll_rcc.h ****   *         @arg @ref LL_RCC_PLLR_DIV_7
 885:Drivers/STM32WBxx_HAL_Driver/Inc/stm32wbxx_ll_rcc.h ****   *         @arg @ref LL_RCC_PLLR_DIV_8
 886:Drivers/STM32WBxx_HAL_Driver/Inc/stm32wbxx_ll_rcc.h ****   * @retval PLL clock frequency (in Hz)
 887:Drivers/STM32WBxx_HAL_Driver/Inc/stm32wbxx_ll_rcc.h ****   */
 888:Drivers/STM32WBxx_HAL_Driver/Inc/stm32wbxx_ll_rcc.h **** #define __LL_RCC_CALC_PLLCLK_FREQ(__INPUTFREQ__, __PLLM__, __PLLN__, __PLLR__) ((__INPUTFREQ__) * (
 889:Drivers/STM32WBxx_HAL_Driver/Inc/stm32wbxx_ll_rcc.h ****                                                                                 (((__PLLR__) >> RCC
 890:Drivers/STM32WBxx_HAL_Driver/Inc/stm32wbxx_ll_rcc.h **** 
 891:Drivers/STM32WBxx_HAL_Driver/Inc/stm32wbxx_ll_rcc.h **** #if defined(SAI1)
 892:Drivers/STM32WBxx_HAL_Driver/Inc/stm32wbxx_ll_rcc.h **** /**
 893:Drivers/STM32WBxx_HAL_Driver/Inc/stm32wbxx_ll_rcc.h ****   * @brief  Helper macro to calculate the PLLPCLK frequency used on SAI domain
 894:Drivers/STM32WBxx_HAL_Driver/Inc/stm32wbxx_ll_rcc.h ****   * @note ex: @ref __LL_RCC_CALC_PLLCLK_SAI_FREQ (HSE_VALUE,@ref LL_RCC_PLL_GetDivider (),
 895:Drivers/STM32WBxx_HAL_Driver/Inc/stm32wbxx_ll_rcc.h ****   *             @ref LL_RCC_PLL_GetN (), @ref LL_RCC_PLL_GetP ());
 896:Drivers/STM32WBxx_HAL_Driver/Inc/stm32wbxx_ll_rcc.h ****   * @param  __INPUTFREQ__ PLL Input frequency (based on MSI/HSE/HSI)
 897:Drivers/STM32WBxx_HAL_Driver/Inc/stm32wbxx_ll_rcc.h ****   * @param  __PLLM__ This parameter can be one of the following values:
 898:Drivers/STM32WBxx_HAL_Driver/Inc/stm32wbxx_ll_rcc.h ****   *         @arg @ref LL_RCC_PLLM_DIV_1
ARM GAS  C:\Users\Joshua\AppData\Local\Temp\cchJYxqO.s 			page 51


 899:Drivers/STM32WBxx_HAL_Driver/Inc/stm32wbxx_ll_rcc.h ****   *         @arg @ref LL_RCC_PLLM_DIV_2
 900:Drivers/STM32WBxx_HAL_Driver/Inc/stm32wbxx_ll_rcc.h ****   *         @arg @ref LL_RCC_PLLM_DIV_3
 901:Drivers/STM32WBxx_HAL_Driver/Inc/stm32wbxx_ll_rcc.h ****   *         @arg @ref LL_RCC_PLLM_DIV_4
 902:Drivers/STM32WBxx_HAL_Driver/Inc/stm32wbxx_ll_rcc.h ****   *         @arg @ref LL_RCC_PLLM_DIV_5
 903:Drivers/STM32WBxx_HAL_Driver/Inc/stm32wbxx_ll_rcc.h ****   *         @arg @ref LL_RCC_PLLM_DIV_6
 904:Drivers/STM32WBxx_HAL_Driver/Inc/stm32wbxx_ll_rcc.h ****   *         @arg @ref LL_RCC_PLLM_DIV_7
 905:Drivers/STM32WBxx_HAL_Driver/Inc/stm32wbxx_ll_rcc.h ****   *         @arg @ref LL_RCC_PLLM_DIV_8
 906:Drivers/STM32WBxx_HAL_Driver/Inc/stm32wbxx_ll_rcc.h ****   * @param  __PLLN__ Between Min_Data = 6 and Max_Data = 127
 907:Drivers/STM32WBxx_HAL_Driver/Inc/stm32wbxx_ll_rcc.h ****   * @param  __PLLP__ This parameter can be one of the following values:
 908:Drivers/STM32WBxx_HAL_Driver/Inc/stm32wbxx_ll_rcc.h ****   *         @arg @ref LL_RCC_PLLP_DIV_2
 909:Drivers/STM32WBxx_HAL_Driver/Inc/stm32wbxx_ll_rcc.h ****   *         @arg @ref LL_RCC_PLLP_DIV_3
 910:Drivers/STM32WBxx_HAL_Driver/Inc/stm32wbxx_ll_rcc.h ****   *         @arg @ref LL_RCC_PLLP_DIV_4
 911:Drivers/STM32WBxx_HAL_Driver/Inc/stm32wbxx_ll_rcc.h ****   *         @arg @ref LL_RCC_PLLP_DIV_5
 912:Drivers/STM32WBxx_HAL_Driver/Inc/stm32wbxx_ll_rcc.h ****   *         @arg @ref LL_RCC_PLLP_DIV_6
 913:Drivers/STM32WBxx_HAL_Driver/Inc/stm32wbxx_ll_rcc.h ****   *         @arg @ref LL_RCC_PLLP_DIV_7
 914:Drivers/STM32WBxx_HAL_Driver/Inc/stm32wbxx_ll_rcc.h ****   *         @arg @ref LL_RCC_PLLP_DIV_8
 915:Drivers/STM32WBxx_HAL_Driver/Inc/stm32wbxx_ll_rcc.h ****   *         @arg @ref LL_RCC_PLLP_DIV_9
 916:Drivers/STM32WBxx_HAL_Driver/Inc/stm32wbxx_ll_rcc.h ****   *         @arg @ref LL_RCC_PLLP_DIV_10
 917:Drivers/STM32WBxx_HAL_Driver/Inc/stm32wbxx_ll_rcc.h ****   *         @arg @ref LL_RCC_PLLP_DIV_11
 918:Drivers/STM32WBxx_HAL_Driver/Inc/stm32wbxx_ll_rcc.h ****   *         @arg @ref LL_RCC_PLLP_DIV_12
 919:Drivers/STM32WBxx_HAL_Driver/Inc/stm32wbxx_ll_rcc.h ****   *         @arg @ref LL_RCC_PLLP_DIV_13
 920:Drivers/STM32WBxx_HAL_Driver/Inc/stm32wbxx_ll_rcc.h ****   *         @arg @ref LL_RCC_PLLP_DIV_14
 921:Drivers/STM32WBxx_HAL_Driver/Inc/stm32wbxx_ll_rcc.h ****   *         @arg @ref LL_RCC_PLLP_DIV_15
 922:Drivers/STM32WBxx_HAL_Driver/Inc/stm32wbxx_ll_rcc.h ****   *         @arg @ref LL_RCC_PLLP_DIV_16
 923:Drivers/STM32WBxx_HAL_Driver/Inc/stm32wbxx_ll_rcc.h ****   *         @arg @ref LL_RCC_PLLP_DIV_17
 924:Drivers/STM32WBxx_HAL_Driver/Inc/stm32wbxx_ll_rcc.h ****   *         @arg @ref LL_RCC_PLLP_DIV_18
 925:Drivers/STM32WBxx_HAL_Driver/Inc/stm32wbxx_ll_rcc.h ****   *         @arg @ref LL_RCC_PLLP_DIV_19
 926:Drivers/STM32WBxx_HAL_Driver/Inc/stm32wbxx_ll_rcc.h ****   *         @arg @ref LL_RCC_PLLP_DIV_20
 927:Drivers/STM32WBxx_HAL_Driver/Inc/stm32wbxx_ll_rcc.h ****   *         @arg @ref LL_RCC_PLLP_DIV_21
 928:Drivers/STM32WBxx_HAL_Driver/Inc/stm32wbxx_ll_rcc.h ****   *         @arg @ref LL_RCC_PLLP_DIV_22
 929:Drivers/STM32WBxx_HAL_Driver/Inc/stm32wbxx_ll_rcc.h ****   *         @arg @ref LL_RCC_PLLP_DIV_23
 930:Drivers/STM32WBxx_HAL_Driver/Inc/stm32wbxx_ll_rcc.h ****   *         @arg @ref LL_RCC_PLLP_DIV_24
 931:Drivers/STM32WBxx_HAL_Driver/Inc/stm32wbxx_ll_rcc.h ****   *         @arg @ref LL_RCC_PLLP_DIV_25
 932:Drivers/STM32WBxx_HAL_Driver/Inc/stm32wbxx_ll_rcc.h ****   *         @arg @ref LL_RCC_PLLP_DIV_26
 933:Drivers/STM32WBxx_HAL_Driver/Inc/stm32wbxx_ll_rcc.h ****   *         @arg @ref LL_RCC_PLLP_DIV_27
 934:Drivers/STM32WBxx_HAL_Driver/Inc/stm32wbxx_ll_rcc.h ****   *         @arg @ref LL_RCC_PLLP_DIV_28
 935:Drivers/STM32WBxx_HAL_Driver/Inc/stm32wbxx_ll_rcc.h ****   *         @arg @ref LL_RCC_PLLP_DIV_29
 936:Drivers/STM32WBxx_HAL_Driver/Inc/stm32wbxx_ll_rcc.h ****   *         @arg @ref LL_RCC_PLLP_DIV_30
 937:Drivers/STM32WBxx_HAL_Driver/Inc/stm32wbxx_ll_rcc.h ****   *         @arg @ref LL_RCC_PLLP_DIV_31
 938:Drivers/STM32WBxx_HAL_Driver/Inc/stm32wbxx_ll_rcc.h ****   * @retval PLL clock frequency (in Hz)
 939:Drivers/STM32WBxx_HAL_Driver/Inc/stm32wbxx_ll_rcc.h ****   */
 940:Drivers/STM32WBxx_HAL_Driver/Inc/stm32wbxx_ll_rcc.h **** #define __LL_RCC_CALC_PLLCLK_SAI_FREQ(__INPUTFREQ__, __PLLM__, __PLLN__, __PLLP__) ((__INPUTFREQ__)
 941:Drivers/STM32WBxx_HAL_Driver/Inc/stm32wbxx_ll_rcc.h ****     (((__PLLP__) >> RCC_PLLCFGR_PLLP_Pos) + 1U))
 942:Drivers/STM32WBxx_HAL_Driver/Inc/stm32wbxx_ll_rcc.h **** #endif /* SAI1 */
 943:Drivers/STM32WBxx_HAL_Driver/Inc/stm32wbxx_ll_rcc.h **** 
 944:Drivers/STM32WBxx_HAL_Driver/Inc/stm32wbxx_ll_rcc.h **** /**
 945:Drivers/STM32WBxx_HAL_Driver/Inc/stm32wbxx_ll_rcc.h ****   * @brief  Helper macro to calculate the PLLPCLK frequency used on ADC domain
 946:Drivers/STM32WBxx_HAL_Driver/Inc/stm32wbxx_ll_rcc.h ****   * @note ex: @ref __LL_RCC_CALC_PLLCLK_ADC_FREQ (HSE_VALUE,@ref LL_RCC_PLL_GetDivider (),
 947:Drivers/STM32WBxx_HAL_Driver/Inc/stm32wbxx_ll_rcc.h ****   *             @ref LL_RCC_PLL_GetN (), @ref LL_RCC_PLL_GetP ());
 948:Drivers/STM32WBxx_HAL_Driver/Inc/stm32wbxx_ll_rcc.h ****   * @param  __INPUTFREQ__ PLL Input frequency (based on MSI/HSE/HSI)
 949:Drivers/STM32WBxx_HAL_Driver/Inc/stm32wbxx_ll_rcc.h ****   * @param  __PLLM__ This parameter can be one of the following values:
 950:Drivers/STM32WBxx_HAL_Driver/Inc/stm32wbxx_ll_rcc.h ****   *         @arg @ref LL_RCC_PLLM_DIV_1
 951:Drivers/STM32WBxx_HAL_Driver/Inc/stm32wbxx_ll_rcc.h ****   *         @arg @ref LL_RCC_PLLM_DIV_2
 952:Drivers/STM32WBxx_HAL_Driver/Inc/stm32wbxx_ll_rcc.h ****   *         @arg @ref LL_RCC_PLLM_DIV_3
 953:Drivers/STM32WBxx_HAL_Driver/Inc/stm32wbxx_ll_rcc.h ****   *         @arg @ref LL_RCC_PLLM_DIV_4
 954:Drivers/STM32WBxx_HAL_Driver/Inc/stm32wbxx_ll_rcc.h ****   *         @arg @ref LL_RCC_PLLM_DIV_5
 955:Drivers/STM32WBxx_HAL_Driver/Inc/stm32wbxx_ll_rcc.h ****   *         @arg @ref LL_RCC_PLLM_DIV_6
ARM GAS  C:\Users\Joshua\AppData\Local\Temp\cchJYxqO.s 			page 52


 956:Drivers/STM32WBxx_HAL_Driver/Inc/stm32wbxx_ll_rcc.h ****   *         @arg @ref LL_RCC_PLLM_DIV_7
 957:Drivers/STM32WBxx_HAL_Driver/Inc/stm32wbxx_ll_rcc.h ****   *         @arg @ref LL_RCC_PLLM_DIV_8
 958:Drivers/STM32WBxx_HAL_Driver/Inc/stm32wbxx_ll_rcc.h ****   * @param  __PLLN__ Between Min_Data = 6 and Max_Data = 127
 959:Drivers/STM32WBxx_HAL_Driver/Inc/stm32wbxx_ll_rcc.h ****   * @param  __PLLP__ This parameter can be one of the following values:
 960:Drivers/STM32WBxx_HAL_Driver/Inc/stm32wbxx_ll_rcc.h ****   *         @arg @ref LL_RCC_PLLP_DIV_2
 961:Drivers/STM32WBxx_HAL_Driver/Inc/stm32wbxx_ll_rcc.h ****   *         @arg @ref LL_RCC_PLLP_DIV_3
 962:Drivers/STM32WBxx_HAL_Driver/Inc/stm32wbxx_ll_rcc.h ****   *         @arg @ref LL_RCC_PLLP_DIV_4
 963:Drivers/STM32WBxx_HAL_Driver/Inc/stm32wbxx_ll_rcc.h ****   *         @arg @ref LL_RCC_PLLP_DIV_5
 964:Drivers/STM32WBxx_HAL_Driver/Inc/stm32wbxx_ll_rcc.h ****   *         @arg @ref LL_RCC_PLLP_DIV_6
 965:Drivers/STM32WBxx_HAL_Driver/Inc/stm32wbxx_ll_rcc.h ****   *         @arg @ref LL_RCC_PLLP_DIV_7
 966:Drivers/STM32WBxx_HAL_Driver/Inc/stm32wbxx_ll_rcc.h ****   *         @arg @ref LL_RCC_PLLP_DIV_8
 967:Drivers/STM32WBxx_HAL_Driver/Inc/stm32wbxx_ll_rcc.h ****   *         @arg @ref LL_RCC_PLLP_DIV_9
 968:Drivers/STM32WBxx_HAL_Driver/Inc/stm32wbxx_ll_rcc.h ****   *         @arg @ref LL_RCC_PLLP_DIV_10
 969:Drivers/STM32WBxx_HAL_Driver/Inc/stm32wbxx_ll_rcc.h ****   *         @arg @ref LL_RCC_PLLP_DIV_11
 970:Drivers/STM32WBxx_HAL_Driver/Inc/stm32wbxx_ll_rcc.h ****   *         @arg @ref LL_RCC_PLLP_DIV_12
 971:Drivers/STM32WBxx_HAL_Driver/Inc/stm32wbxx_ll_rcc.h ****   *         @arg @ref LL_RCC_PLLP_DIV_13
 972:Drivers/STM32WBxx_HAL_Driver/Inc/stm32wbxx_ll_rcc.h ****   *         @arg @ref LL_RCC_PLLP_DIV_14
 973:Drivers/STM32WBxx_HAL_Driver/Inc/stm32wbxx_ll_rcc.h ****   *         @arg @ref LL_RCC_PLLP_DIV_15
 974:Drivers/STM32WBxx_HAL_Driver/Inc/stm32wbxx_ll_rcc.h ****   *         @arg @ref LL_RCC_PLLP_DIV_16
 975:Drivers/STM32WBxx_HAL_Driver/Inc/stm32wbxx_ll_rcc.h ****   *         @arg @ref LL_RCC_PLLP_DIV_17
 976:Drivers/STM32WBxx_HAL_Driver/Inc/stm32wbxx_ll_rcc.h ****   *         @arg @ref LL_RCC_PLLP_DIV_18
 977:Drivers/STM32WBxx_HAL_Driver/Inc/stm32wbxx_ll_rcc.h ****   *         @arg @ref LL_RCC_PLLP_DIV_19
 978:Drivers/STM32WBxx_HAL_Driver/Inc/stm32wbxx_ll_rcc.h ****   *         @arg @ref LL_RCC_PLLP_DIV_20
 979:Drivers/STM32WBxx_HAL_Driver/Inc/stm32wbxx_ll_rcc.h ****   *         @arg @ref LL_RCC_PLLP_DIV_21
 980:Drivers/STM32WBxx_HAL_Driver/Inc/stm32wbxx_ll_rcc.h ****   *         @arg @ref LL_RCC_PLLP_DIV_22
 981:Drivers/STM32WBxx_HAL_Driver/Inc/stm32wbxx_ll_rcc.h ****   *         @arg @ref LL_RCC_PLLP_DIV_23
 982:Drivers/STM32WBxx_HAL_Driver/Inc/stm32wbxx_ll_rcc.h ****   *         @arg @ref LL_RCC_PLLP_DIV_24
 983:Drivers/STM32WBxx_HAL_Driver/Inc/stm32wbxx_ll_rcc.h ****   *         @arg @ref LL_RCC_PLLP_DIV_25
 984:Drivers/STM32WBxx_HAL_Driver/Inc/stm32wbxx_ll_rcc.h ****   *         @arg @ref LL_RCC_PLLP_DIV_26
 985:Drivers/STM32WBxx_HAL_Driver/Inc/stm32wbxx_ll_rcc.h ****   *         @arg @ref LL_RCC_PLLP_DIV_27
 986:Drivers/STM32WBxx_HAL_Driver/Inc/stm32wbxx_ll_rcc.h ****   *         @arg @ref LL_RCC_PLLP_DIV_28
 987:Drivers/STM32WBxx_HAL_Driver/Inc/stm32wbxx_ll_rcc.h ****   *         @arg @ref LL_RCC_PLLP_DIV_29
 988:Drivers/STM32WBxx_HAL_Driver/Inc/stm32wbxx_ll_rcc.h ****   *         @arg @ref LL_RCC_PLLP_DIV_30
 989:Drivers/STM32WBxx_HAL_Driver/Inc/stm32wbxx_ll_rcc.h ****   *         @arg @ref LL_RCC_PLLP_DIV_31
 990:Drivers/STM32WBxx_HAL_Driver/Inc/stm32wbxx_ll_rcc.h ****   *         @arg @ref LL_RCC_PLLP_DIV_32
 991:Drivers/STM32WBxx_HAL_Driver/Inc/stm32wbxx_ll_rcc.h ****   * @retval PLL clock frequency (in Hz)
 992:Drivers/STM32WBxx_HAL_Driver/Inc/stm32wbxx_ll_rcc.h ****   */
 993:Drivers/STM32WBxx_HAL_Driver/Inc/stm32wbxx_ll_rcc.h **** #define __LL_RCC_CALC_PLLCLK_ADC_FREQ(__INPUTFREQ__, __PLLM__, __PLLN__, __PLLP__) ((__INPUTFREQ__)
 994:Drivers/STM32WBxx_HAL_Driver/Inc/stm32wbxx_ll_rcc.h ****     (((__PLLP__) >> RCC_PLLCFGR_PLLP_Pos) + 1U))
 995:Drivers/STM32WBxx_HAL_Driver/Inc/stm32wbxx_ll_rcc.h **** 
 996:Drivers/STM32WBxx_HAL_Driver/Inc/stm32wbxx_ll_rcc.h **** 
 997:Drivers/STM32WBxx_HAL_Driver/Inc/stm32wbxx_ll_rcc.h **** /**
 998:Drivers/STM32WBxx_HAL_Driver/Inc/stm32wbxx_ll_rcc.h ****   * @brief  Helper macro to calculate the PLLQCLK frequency used on 48M domain
 999:Drivers/STM32WBxx_HAL_Driver/Inc/stm32wbxx_ll_rcc.h ****   * @note ex: @ref __LL_RCC_CALC_PLLCLK_48M_FREQ (HSE_VALUE,@ref LL_RCC_PLL_GetDivider (),
1000:Drivers/STM32WBxx_HAL_Driver/Inc/stm32wbxx_ll_rcc.h ****   *             @ref LL_RCC_PLL_GetN (), @ref LL_RCC_PLL_GetQ ());
1001:Drivers/STM32WBxx_HAL_Driver/Inc/stm32wbxx_ll_rcc.h ****   * @param  __INPUTFREQ__ PLL Input frequency (based on MSI/HSE/HSI)
1002:Drivers/STM32WBxx_HAL_Driver/Inc/stm32wbxx_ll_rcc.h ****   * @param  __PLLM__ This parameter can be one of the following values:
1003:Drivers/STM32WBxx_HAL_Driver/Inc/stm32wbxx_ll_rcc.h ****   *         @arg @ref LL_RCC_PLLM_DIV_1
1004:Drivers/STM32WBxx_HAL_Driver/Inc/stm32wbxx_ll_rcc.h ****   *         @arg @ref LL_RCC_PLLM_DIV_2
1005:Drivers/STM32WBxx_HAL_Driver/Inc/stm32wbxx_ll_rcc.h ****   *         @arg @ref LL_RCC_PLLM_DIV_3
1006:Drivers/STM32WBxx_HAL_Driver/Inc/stm32wbxx_ll_rcc.h ****   *         @arg @ref LL_RCC_PLLM_DIV_4
1007:Drivers/STM32WBxx_HAL_Driver/Inc/stm32wbxx_ll_rcc.h ****   *         @arg @ref LL_RCC_PLLM_DIV_5
1008:Drivers/STM32WBxx_HAL_Driver/Inc/stm32wbxx_ll_rcc.h ****   *         @arg @ref LL_RCC_PLLM_DIV_6
1009:Drivers/STM32WBxx_HAL_Driver/Inc/stm32wbxx_ll_rcc.h ****   *         @arg @ref LL_RCC_PLLM_DIV_7
1010:Drivers/STM32WBxx_HAL_Driver/Inc/stm32wbxx_ll_rcc.h ****   *         @arg @ref LL_RCC_PLLM_DIV_8
1011:Drivers/STM32WBxx_HAL_Driver/Inc/stm32wbxx_ll_rcc.h ****   * @param  __PLLN__ Between Min_Data = 6 and Max_Data = 127
1012:Drivers/STM32WBxx_HAL_Driver/Inc/stm32wbxx_ll_rcc.h ****   * @param  __PLLQ__ This parameter can be one of the following values:
ARM GAS  C:\Users\Joshua\AppData\Local\Temp\cchJYxqO.s 			page 53


1013:Drivers/STM32WBxx_HAL_Driver/Inc/stm32wbxx_ll_rcc.h ****   *         @arg @ref LL_RCC_PLLQ_DIV_2
1014:Drivers/STM32WBxx_HAL_Driver/Inc/stm32wbxx_ll_rcc.h ****   *         @arg @ref LL_RCC_PLLQ_DIV_3
1015:Drivers/STM32WBxx_HAL_Driver/Inc/stm32wbxx_ll_rcc.h ****   *         @arg @ref LL_RCC_PLLQ_DIV_4
1016:Drivers/STM32WBxx_HAL_Driver/Inc/stm32wbxx_ll_rcc.h ****   *         @arg @ref LL_RCC_PLLQ_DIV_5
1017:Drivers/STM32WBxx_HAL_Driver/Inc/stm32wbxx_ll_rcc.h ****   *         @arg @ref LL_RCC_PLLQ_DIV_6
1018:Drivers/STM32WBxx_HAL_Driver/Inc/stm32wbxx_ll_rcc.h ****   *         @arg @ref LL_RCC_PLLQ_DIV_7
1019:Drivers/STM32WBxx_HAL_Driver/Inc/stm32wbxx_ll_rcc.h ****   *         @arg @ref LL_RCC_PLLQ_DIV_8
1020:Drivers/STM32WBxx_HAL_Driver/Inc/stm32wbxx_ll_rcc.h ****   * @retval PLL clock frequency (in Hz)
1021:Drivers/STM32WBxx_HAL_Driver/Inc/stm32wbxx_ll_rcc.h ****   */
1022:Drivers/STM32WBxx_HAL_Driver/Inc/stm32wbxx_ll_rcc.h **** #define __LL_RCC_CALC_PLLCLK_48M_FREQ(__INPUTFREQ__, __PLLM__, __PLLN__, __PLLQ__) ((__INPUTFREQ__)
1023:Drivers/STM32WBxx_HAL_Driver/Inc/stm32wbxx_ll_rcc.h ****     (((__PLLQ__) >> RCC_PLLCFGR_PLLQ_Pos) + 1U))
1024:Drivers/STM32WBxx_HAL_Driver/Inc/stm32wbxx_ll_rcc.h **** 
1025:Drivers/STM32WBxx_HAL_Driver/Inc/stm32wbxx_ll_rcc.h **** #if defined(SAI1)
1026:Drivers/STM32WBxx_HAL_Driver/Inc/stm32wbxx_ll_rcc.h **** /**
1027:Drivers/STM32WBxx_HAL_Driver/Inc/stm32wbxx_ll_rcc.h ****   * @brief  Helper macro to calculate the PLLSAI1PCLK frequency used for SAI domain
1028:Drivers/STM32WBxx_HAL_Driver/Inc/stm32wbxx_ll_rcc.h ****   * @note ex: @ref __LL_RCC_CALC_PLLSAI1_SAI_FREQ (HSE_VALUE,@ref LL_RCC_PLL_GetDivider (),
1029:Drivers/STM32WBxx_HAL_Driver/Inc/stm32wbxx_ll_rcc.h ****   *             @ref LL_RCC_PLLSAI1_GetN (), @ref LL_RCC_PLLSAI1_GetP ());
1030:Drivers/STM32WBxx_HAL_Driver/Inc/stm32wbxx_ll_rcc.h ****   * @param  __INPUTFREQ__ PLL Input frequency (based on MSI/HSE/HSI)
1031:Drivers/STM32WBxx_HAL_Driver/Inc/stm32wbxx_ll_rcc.h ****   * @param  __PLLM__ This parameter can be one of the following values:
1032:Drivers/STM32WBxx_HAL_Driver/Inc/stm32wbxx_ll_rcc.h ****   *         @arg @ref LL_RCC_PLLM_DIV_1
1033:Drivers/STM32WBxx_HAL_Driver/Inc/stm32wbxx_ll_rcc.h ****   *         @arg @ref LL_RCC_PLLM_DIV_2
1034:Drivers/STM32WBxx_HAL_Driver/Inc/stm32wbxx_ll_rcc.h ****   *         @arg @ref LL_RCC_PLLM_DIV_3
1035:Drivers/STM32WBxx_HAL_Driver/Inc/stm32wbxx_ll_rcc.h ****   *         @arg @ref LL_RCC_PLLM_DIV_4
1036:Drivers/STM32WBxx_HAL_Driver/Inc/stm32wbxx_ll_rcc.h ****   *         @arg @ref LL_RCC_PLLM_DIV_5
1037:Drivers/STM32WBxx_HAL_Driver/Inc/stm32wbxx_ll_rcc.h ****   *         @arg @ref LL_RCC_PLLM_DIV_6
1038:Drivers/STM32WBxx_HAL_Driver/Inc/stm32wbxx_ll_rcc.h ****   *         @arg @ref LL_RCC_PLLM_DIV_7
1039:Drivers/STM32WBxx_HAL_Driver/Inc/stm32wbxx_ll_rcc.h ****   *         @arg @ref LL_RCC_PLLM_DIV_8
1040:Drivers/STM32WBxx_HAL_Driver/Inc/stm32wbxx_ll_rcc.h ****   * @param  __PLLSAI1N__ Between 6 and 127
1041:Drivers/STM32WBxx_HAL_Driver/Inc/stm32wbxx_ll_rcc.h ****   * @param  __PLLSAI1P__ This parameter can be one of the following values:
1042:Drivers/STM32WBxx_HAL_Driver/Inc/stm32wbxx_ll_rcc.h ****   *         @arg @ref LL_RCC_PLLSAI1P_DIV_2
1043:Drivers/STM32WBxx_HAL_Driver/Inc/stm32wbxx_ll_rcc.h ****   *         @arg @ref LL_RCC_PLLSAI1P_DIV_3
1044:Drivers/STM32WBxx_HAL_Driver/Inc/stm32wbxx_ll_rcc.h ****   *         @arg @ref LL_RCC_PLLSAI1P_DIV_4
1045:Drivers/STM32WBxx_HAL_Driver/Inc/stm32wbxx_ll_rcc.h ****   *         @arg @ref LL_RCC_PLLSAI1P_DIV_5
1046:Drivers/STM32WBxx_HAL_Driver/Inc/stm32wbxx_ll_rcc.h ****   *         @arg @ref LL_RCC_PLLSAI1P_DIV_6
1047:Drivers/STM32WBxx_HAL_Driver/Inc/stm32wbxx_ll_rcc.h ****   *         @arg @ref LL_RCC_PLLSAI1P_DIV_7
1048:Drivers/STM32WBxx_HAL_Driver/Inc/stm32wbxx_ll_rcc.h ****   *         @arg @ref LL_RCC_PLLSAI1P_DIV_8
1049:Drivers/STM32WBxx_HAL_Driver/Inc/stm32wbxx_ll_rcc.h ****   *         @arg @ref LL_RCC_PLLSAI1P_DIV_9
1050:Drivers/STM32WBxx_HAL_Driver/Inc/stm32wbxx_ll_rcc.h ****   *         @arg @ref LL_RCC_PLLSAI1P_DIV_10
1051:Drivers/STM32WBxx_HAL_Driver/Inc/stm32wbxx_ll_rcc.h ****   *         @arg @ref LL_RCC_PLLSAI1P_DIV_11
1052:Drivers/STM32WBxx_HAL_Driver/Inc/stm32wbxx_ll_rcc.h ****   *         @arg @ref LL_RCC_PLLSAI1P_DIV_12
1053:Drivers/STM32WBxx_HAL_Driver/Inc/stm32wbxx_ll_rcc.h ****   *         @arg @ref LL_RCC_PLLSAI1P_DIV_13
1054:Drivers/STM32WBxx_HAL_Driver/Inc/stm32wbxx_ll_rcc.h ****   *         @arg @ref LL_RCC_PLLSAI1P_DIV_14
1055:Drivers/STM32WBxx_HAL_Driver/Inc/stm32wbxx_ll_rcc.h ****   *         @arg @ref LL_RCC_PLLSAI1P_DIV_15
1056:Drivers/STM32WBxx_HAL_Driver/Inc/stm32wbxx_ll_rcc.h ****   *         @arg @ref LL_RCC_PLLSAI1P_DIV_16
1057:Drivers/STM32WBxx_HAL_Driver/Inc/stm32wbxx_ll_rcc.h ****   *         @arg @ref LL_RCC_PLLSAI1P_DIV_17
1058:Drivers/STM32WBxx_HAL_Driver/Inc/stm32wbxx_ll_rcc.h ****   *         @arg @ref LL_RCC_PLLSAI1P_DIV_18
1059:Drivers/STM32WBxx_HAL_Driver/Inc/stm32wbxx_ll_rcc.h ****   *         @arg @ref LL_RCC_PLLSAI1P_DIV_19
1060:Drivers/STM32WBxx_HAL_Driver/Inc/stm32wbxx_ll_rcc.h ****   *         @arg @ref LL_RCC_PLLSAI1P_DIV_20
1061:Drivers/STM32WBxx_HAL_Driver/Inc/stm32wbxx_ll_rcc.h ****   *         @arg @ref LL_RCC_PLLSAI1P_DIV_21
1062:Drivers/STM32WBxx_HAL_Driver/Inc/stm32wbxx_ll_rcc.h ****   *         @arg @ref LL_RCC_PLLSAI1P_DIV_22
1063:Drivers/STM32WBxx_HAL_Driver/Inc/stm32wbxx_ll_rcc.h ****   *         @arg @ref LL_RCC_PLLSAI1P_DIV_23
1064:Drivers/STM32WBxx_HAL_Driver/Inc/stm32wbxx_ll_rcc.h ****   *         @arg @ref LL_RCC_PLLSAI1P_DIV_24
1065:Drivers/STM32WBxx_HAL_Driver/Inc/stm32wbxx_ll_rcc.h ****   *         @arg @ref LL_RCC_PLLSAI1P_DIV_25
1066:Drivers/STM32WBxx_HAL_Driver/Inc/stm32wbxx_ll_rcc.h ****   *         @arg @ref LL_RCC_PLLSAI1P_DIV_26
1067:Drivers/STM32WBxx_HAL_Driver/Inc/stm32wbxx_ll_rcc.h ****   *         @arg @ref LL_RCC_PLLSAI1P_DIV_27
1068:Drivers/STM32WBxx_HAL_Driver/Inc/stm32wbxx_ll_rcc.h ****   *         @arg @ref LL_RCC_PLLSAI1P_DIV_28
1069:Drivers/STM32WBxx_HAL_Driver/Inc/stm32wbxx_ll_rcc.h ****   *         @arg @ref LL_RCC_PLLSAI1P_DIV_29
ARM GAS  C:\Users\Joshua\AppData\Local\Temp\cchJYxqO.s 			page 54


1070:Drivers/STM32WBxx_HAL_Driver/Inc/stm32wbxx_ll_rcc.h ****   *         @arg @ref LL_RCC_PLLSAI1P_DIV_30
1071:Drivers/STM32WBxx_HAL_Driver/Inc/stm32wbxx_ll_rcc.h ****   *         @arg @ref LL_RCC_PLLSAI1P_DIV_31
1072:Drivers/STM32WBxx_HAL_Driver/Inc/stm32wbxx_ll_rcc.h ****   *         @arg @ref LL_RCC_PLLSAI1P_DIV_32
1073:Drivers/STM32WBxx_HAL_Driver/Inc/stm32wbxx_ll_rcc.h ****   * @retval PLLSAI1 clock frequency (in Hz)
1074:Drivers/STM32WBxx_HAL_Driver/Inc/stm32wbxx_ll_rcc.h ****   */
1075:Drivers/STM32WBxx_HAL_Driver/Inc/stm32wbxx_ll_rcc.h **** #define __LL_RCC_CALC_PLLSAI1_SAI_FREQ(__INPUTFREQ__, __PLLM__, __PLLSAI1N__, __PLLSAI1P__) \
1076:Drivers/STM32WBxx_HAL_Driver/Inc/stm32wbxx_ll_rcc.h ****   ((__INPUTFREQ__) * (__PLLSAI1N__)  / ((((__PLLM__)>> RCC_PLLCFGR_PLLM_Pos) + 1U)) / \
1077:Drivers/STM32WBxx_HAL_Driver/Inc/stm32wbxx_ll_rcc.h ****    (((__PLLSAI1P__) >> RCC_PLLSAI1CFGR_PLLP_Pos) + 1U))
1078:Drivers/STM32WBxx_HAL_Driver/Inc/stm32wbxx_ll_rcc.h **** 
1079:Drivers/STM32WBxx_HAL_Driver/Inc/stm32wbxx_ll_rcc.h **** /**
1080:Drivers/STM32WBxx_HAL_Driver/Inc/stm32wbxx_ll_rcc.h ****   * @brief  Helper macro to calculate the PLLSAI1QCLK frequency used on 48M domain
1081:Drivers/STM32WBxx_HAL_Driver/Inc/stm32wbxx_ll_rcc.h ****   * @note ex: @ref __LL_RCC_CALC_PLLSAI1_48M_FREQ (HSE_VALUE,@ref LL_RCC_PLL_GetDivider (),
1082:Drivers/STM32WBxx_HAL_Driver/Inc/stm32wbxx_ll_rcc.h ****   *             @ref LL_RCC_PLLSAI1_GetN (), @ref LL_RCC_PLLSAI1_GetQ ());
1083:Drivers/STM32WBxx_HAL_Driver/Inc/stm32wbxx_ll_rcc.h ****   * @param  __INPUTFREQ__ PLL Input frequency (based on MSI/HSE/HSI)
1084:Drivers/STM32WBxx_HAL_Driver/Inc/stm32wbxx_ll_rcc.h ****   * @param  __PLLM__ This parameter can be one of the following values:
1085:Drivers/STM32WBxx_HAL_Driver/Inc/stm32wbxx_ll_rcc.h ****   *         @arg @ref LL_RCC_PLLM_DIV_1
1086:Drivers/STM32WBxx_HAL_Driver/Inc/stm32wbxx_ll_rcc.h ****   *         @arg @ref LL_RCC_PLLM_DIV_2
1087:Drivers/STM32WBxx_HAL_Driver/Inc/stm32wbxx_ll_rcc.h ****   *         @arg @ref LL_RCC_PLLM_DIV_3
1088:Drivers/STM32WBxx_HAL_Driver/Inc/stm32wbxx_ll_rcc.h ****   *         @arg @ref LL_RCC_PLLM_DIV_4
1089:Drivers/STM32WBxx_HAL_Driver/Inc/stm32wbxx_ll_rcc.h ****   *         @arg @ref LL_RCC_PLLM_DIV_5
1090:Drivers/STM32WBxx_HAL_Driver/Inc/stm32wbxx_ll_rcc.h ****   *         @arg @ref LL_RCC_PLLM_DIV_6
1091:Drivers/STM32WBxx_HAL_Driver/Inc/stm32wbxx_ll_rcc.h ****   *         @arg @ref LL_RCC_PLLM_DIV_7
1092:Drivers/STM32WBxx_HAL_Driver/Inc/stm32wbxx_ll_rcc.h ****   *         @arg @ref LL_RCC_PLLM_DIV_8
1093:Drivers/STM32WBxx_HAL_Driver/Inc/stm32wbxx_ll_rcc.h ****   * @param  __PLLSAI1N__ Between 6 and 127
1094:Drivers/STM32WBxx_HAL_Driver/Inc/stm32wbxx_ll_rcc.h ****   * @param  __PLLSAI1Q__ This parameter can be one of the following values:
1095:Drivers/STM32WBxx_HAL_Driver/Inc/stm32wbxx_ll_rcc.h ****   *         @arg @ref LL_RCC_PLLSAI1Q_DIV_2
1096:Drivers/STM32WBxx_HAL_Driver/Inc/stm32wbxx_ll_rcc.h ****   *         @arg @ref LL_RCC_PLLSAI1Q_DIV_3
1097:Drivers/STM32WBxx_HAL_Driver/Inc/stm32wbxx_ll_rcc.h ****   *         @arg @ref LL_RCC_PLLSAI1Q_DIV_4
1098:Drivers/STM32WBxx_HAL_Driver/Inc/stm32wbxx_ll_rcc.h ****   *         @arg @ref LL_RCC_PLLSAI1Q_DIV_5
1099:Drivers/STM32WBxx_HAL_Driver/Inc/stm32wbxx_ll_rcc.h ****   *         @arg @ref LL_RCC_PLLSAI1Q_DIV_6
1100:Drivers/STM32WBxx_HAL_Driver/Inc/stm32wbxx_ll_rcc.h ****   *         @arg @ref LL_RCC_PLLSAI1Q_DIV_7
1101:Drivers/STM32WBxx_HAL_Driver/Inc/stm32wbxx_ll_rcc.h ****   *         @arg @ref LL_RCC_PLLSAI1Q_DIV_8
1102:Drivers/STM32WBxx_HAL_Driver/Inc/stm32wbxx_ll_rcc.h ****   * @retval PLLSAI1 clock frequency (in Hz)
1103:Drivers/STM32WBxx_HAL_Driver/Inc/stm32wbxx_ll_rcc.h ****   */
1104:Drivers/STM32WBxx_HAL_Driver/Inc/stm32wbxx_ll_rcc.h **** #define __LL_RCC_CALC_PLLSAI1_48M_FREQ(__INPUTFREQ__, __PLLM__, __PLLSAI1N__, __PLLSAI1Q__) \
1105:Drivers/STM32WBxx_HAL_Driver/Inc/stm32wbxx_ll_rcc.h ****   ((__INPUTFREQ__) * (__PLLSAI1N__) / ((((__PLLM__)>> RCC_PLLCFGR_PLLM_Pos) + 1U)) / \
1106:Drivers/STM32WBxx_HAL_Driver/Inc/stm32wbxx_ll_rcc.h ****    (((__PLLSAI1Q__) >> RCC_PLLSAI1CFGR_PLLQ_Pos) + 1U))
1107:Drivers/STM32WBxx_HAL_Driver/Inc/stm32wbxx_ll_rcc.h **** 
1108:Drivers/STM32WBxx_HAL_Driver/Inc/stm32wbxx_ll_rcc.h **** /**
1109:Drivers/STM32WBxx_HAL_Driver/Inc/stm32wbxx_ll_rcc.h ****   * @brief  Helper macro to calculate the PLLSAI1RCLK frequency used on ADC domain
1110:Drivers/STM32WBxx_HAL_Driver/Inc/stm32wbxx_ll_rcc.h ****   * @note ex: @ref __LL_RCC_CALC_PLLSAI1_ADC_FREQ (HSE_VALUE,@ref LL_RCC_PLL_GetDivider (),
1111:Drivers/STM32WBxx_HAL_Driver/Inc/stm32wbxx_ll_rcc.h ****   *             @ref LL_RCC_PLLSAI1_GetN (), @ref LL_RCC_PLLSAI1_GetR ());
1112:Drivers/STM32WBxx_HAL_Driver/Inc/stm32wbxx_ll_rcc.h ****   * @param  __INPUTFREQ__ PLL Input frequency (based on MSI/HSE/HSI)
1113:Drivers/STM32WBxx_HAL_Driver/Inc/stm32wbxx_ll_rcc.h ****   * @param  __PLLM__ This parameter can be one of the following values:
1114:Drivers/STM32WBxx_HAL_Driver/Inc/stm32wbxx_ll_rcc.h ****   *         @arg @ref LL_RCC_PLLM_DIV_1
1115:Drivers/STM32WBxx_HAL_Driver/Inc/stm32wbxx_ll_rcc.h ****   *         @arg @ref LL_RCC_PLLM_DIV_2
1116:Drivers/STM32WBxx_HAL_Driver/Inc/stm32wbxx_ll_rcc.h ****   *         @arg @ref LL_RCC_PLLM_DIV_3
1117:Drivers/STM32WBxx_HAL_Driver/Inc/stm32wbxx_ll_rcc.h ****   *         @arg @ref LL_RCC_PLLM_DIV_4
1118:Drivers/STM32WBxx_HAL_Driver/Inc/stm32wbxx_ll_rcc.h ****   *         @arg @ref LL_RCC_PLLM_DIV_5
1119:Drivers/STM32WBxx_HAL_Driver/Inc/stm32wbxx_ll_rcc.h ****   *         @arg @ref LL_RCC_PLLM_DIV_6
1120:Drivers/STM32WBxx_HAL_Driver/Inc/stm32wbxx_ll_rcc.h ****   *         @arg @ref LL_RCC_PLLM_DIV_7
1121:Drivers/STM32WBxx_HAL_Driver/Inc/stm32wbxx_ll_rcc.h ****   *         @arg @ref LL_RCC_PLLM_DIV_8
1122:Drivers/STM32WBxx_HAL_Driver/Inc/stm32wbxx_ll_rcc.h ****   * @param  __PLLSAI1N__ Between 6 and 127
1123:Drivers/STM32WBxx_HAL_Driver/Inc/stm32wbxx_ll_rcc.h ****   * @param  __PLLSAI1R__ This parameter can be one of the following values:
1124:Drivers/STM32WBxx_HAL_Driver/Inc/stm32wbxx_ll_rcc.h ****   *         @arg @ref LL_RCC_PLLSAI1R_DIV_2
1125:Drivers/STM32WBxx_HAL_Driver/Inc/stm32wbxx_ll_rcc.h ****   *         @arg @ref LL_RCC_PLLSAI1R_DIV_3
1126:Drivers/STM32WBxx_HAL_Driver/Inc/stm32wbxx_ll_rcc.h ****   *         @arg @ref LL_RCC_PLLSAI1R_DIV_4
ARM GAS  C:\Users\Joshua\AppData\Local\Temp\cchJYxqO.s 			page 55


1127:Drivers/STM32WBxx_HAL_Driver/Inc/stm32wbxx_ll_rcc.h ****   *         @arg @ref LL_RCC_PLLSAI1R_DIV_5
1128:Drivers/STM32WBxx_HAL_Driver/Inc/stm32wbxx_ll_rcc.h ****   *         @arg @ref LL_RCC_PLLSAI1R_DIV_6
1129:Drivers/STM32WBxx_HAL_Driver/Inc/stm32wbxx_ll_rcc.h ****   *         @arg @ref LL_RCC_PLLSAI1R_DIV_7
1130:Drivers/STM32WBxx_HAL_Driver/Inc/stm32wbxx_ll_rcc.h ****   *         @arg @ref LL_RCC_PLLSAI1R_DIV_8
1131:Drivers/STM32WBxx_HAL_Driver/Inc/stm32wbxx_ll_rcc.h ****   * @retval PLLSAI1 clock frequency (in Hz)
1132:Drivers/STM32WBxx_HAL_Driver/Inc/stm32wbxx_ll_rcc.h ****   */
1133:Drivers/STM32WBxx_HAL_Driver/Inc/stm32wbxx_ll_rcc.h **** #define __LL_RCC_CALC_PLLSAI1_ADC_FREQ(__INPUTFREQ__, __PLLM__, __PLLSAI1N__, __PLLSAI1R__) \
1134:Drivers/STM32WBxx_HAL_Driver/Inc/stm32wbxx_ll_rcc.h ****   ((__INPUTFREQ__) * (__PLLSAI1N__) / ((((__PLLM__)>> RCC_PLLCFGR_PLLM_Pos) + 1U)) / \
1135:Drivers/STM32WBxx_HAL_Driver/Inc/stm32wbxx_ll_rcc.h ****    (((__PLLSAI1R__) >> RCC_PLLSAI1CFGR_PLLR_Pos) + 1U))
1136:Drivers/STM32WBxx_HAL_Driver/Inc/stm32wbxx_ll_rcc.h **** #endif /* SAI1 */
1137:Drivers/STM32WBxx_HAL_Driver/Inc/stm32wbxx_ll_rcc.h **** 
1138:Drivers/STM32WBxx_HAL_Driver/Inc/stm32wbxx_ll_rcc.h **** /**
1139:Drivers/STM32WBxx_HAL_Driver/Inc/stm32wbxx_ll_rcc.h ****   * @brief  Helper macro to calculate the HCLK1 frequency
1140:Drivers/STM32WBxx_HAL_Driver/Inc/stm32wbxx_ll_rcc.h ****   * @param  __SYSCLKFREQ__ SYSCLK frequency (based on MSI/HSE/HSI/PLLCLK)
1141:Drivers/STM32WBxx_HAL_Driver/Inc/stm32wbxx_ll_rcc.h ****   * @param  __CPU1PRESCALER__ This parameter can be one of the following values:
1142:Drivers/STM32WBxx_HAL_Driver/Inc/stm32wbxx_ll_rcc.h ****   *         @arg @ref LL_RCC_SYSCLK_DIV_1
1143:Drivers/STM32WBxx_HAL_Driver/Inc/stm32wbxx_ll_rcc.h ****   *         @arg @ref LL_RCC_SYSCLK_DIV_2
1144:Drivers/STM32WBxx_HAL_Driver/Inc/stm32wbxx_ll_rcc.h ****   *         @arg @ref LL_RCC_SYSCLK_DIV_3
1145:Drivers/STM32WBxx_HAL_Driver/Inc/stm32wbxx_ll_rcc.h ****   *         @arg @ref LL_RCC_SYSCLK_DIV_4
1146:Drivers/STM32WBxx_HAL_Driver/Inc/stm32wbxx_ll_rcc.h ****   *         @arg @ref LL_RCC_SYSCLK_DIV_5
1147:Drivers/STM32WBxx_HAL_Driver/Inc/stm32wbxx_ll_rcc.h ****   *         @arg @ref LL_RCC_SYSCLK_DIV_6
1148:Drivers/STM32WBxx_HAL_Driver/Inc/stm32wbxx_ll_rcc.h ****   *         @arg @ref LL_RCC_SYSCLK_DIV_8
1149:Drivers/STM32WBxx_HAL_Driver/Inc/stm32wbxx_ll_rcc.h ****   *         @arg @ref LL_RCC_SYSCLK_DIV_10
1150:Drivers/STM32WBxx_HAL_Driver/Inc/stm32wbxx_ll_rcc.h ****   *         @arg @ref LL_RCC_SYSCLK_DIV_16
1151:Drivers/STM32WBxx_HAL_Driver/Inc/stm32wbxx_ll_rcc.h ****   *         @arg @ref LL_RCC_SYSCLK_DIV_32
1152:Drivers/STM32WBxx_HAL_Driver/Inc/stm32wbxx_ll_rcc.h ****   *         @arg @ref LL_RCC_SYSCLK_DIV_64
1153:Drivers/STM32WBxx_HAL_Driver/Inc/stm32wbxx_ll_rcc.h ****   *         @arg @ref LL_RCC_SYSCLK_DIV_128
1154:Drivers/STM32WBxx_HAL_Driver/Inc/stm32wbxx_ll_rcc.h ****   *         @arg @ref LL_RCC_SYSCLK_DIV_256
1155:Drivers/STM32WBxx_HAL_Driver/Inc/stm32wbxx_ll_rcc.h ****   *         @arg @ref LL_RCC_SYSCLK_DIV_512
1156:Drivers/STM32WBxx_HAL_Driver/Inc/stm32wbxx_ll_rcc.h ****   * @retval HCLK1 clock frequency (in Hz)
1157:Drivers/STM32WBxx_HAL_Driver/Inc/stm32wbxx_ll_rcc.h ****   */
1158:Drivers/STM32WBxx_HAL_Driver/Inc/stm32wbxx_ll_rcc.h **** #define __LL_RCC_CALC_HCLK1_FREQ(__SYSCLKFREQ__,__CPU1PRESCALER__) ((__SYSCLKFREQ__) / AHBPrescTabl
1159:Drivers/STM32WBxx_HAL_Driver/Inc/stm32wbxx_ll_rcc.h ****                                                                     & RCC_CFGR_HPRE) >>  RCC_CFGR_H
1160:Drivers/STM32WBxx_HAL_Driver/Inc/stm32wbxx_ll_rcc.h **** 
1161:Drivers/STM32WBxx_HAL_Driver/Inc/stm32wbxx_ll_rcc.h **** /**
1162:Drivers/STM32WBxx_HAL_Driver/Inc/stm32wbxx_ll_rcc.h ****   * @brief  Helper macro to calculate the HCLK2 frequency
1163:Drivers/STM32WBxx_HAL_Driver/Inc/stm32wbxx_ll_rcc.h ****   * @param  __SYSCLKFREQ__ SYSCLK frequency (based on MSI/HSE/HSI/PLLCLK)
1164:Drivers/STM32WBxx_HAL_Driver/Inc/stm32wbxx_ll_rcc.h ****   * @param  __CPU2PRESCALER__ This parameter can be one of the following values:
1165:Drivers/STM32WBxx_HAL_Driver/Inc/stm32wbxx_ll_rcc.h ****   *         @arg @ref LL_RCC_SYSCLK_DIV_1
1166:Drivers/STM32WBxx_HAL_Driver/Inc/stm32wbxx_ll_rcc.h ****   *         @arg @ref LL_RCC_SYSCLK_DIV_2
1167:Drivers/STM32WBxx_HAL_Driver/Inc/stm32wbxx_ll_rcc.h ****   *         @arg @ref LL_RCC_SYSCLK_DIV_3
1168:Drivers/STM32WBxx_HAL_Driver/Inc/stm32wbxx_ll_rcc.h ****   *         @arg @ref LL_RCC_SYSCLK_DIV_4
1169:Drivers/STM32WBxx_HAL_Driver/Inc/stm32wbxx_ll_rcc.h ****   *         @arg @ref LL_RCC_SYSCLK_DIV_5
1170:Drivers/STM32WBxx_HAL_Driver/Inc/stm32wbxx_ll_rcc.h ****   *         @arg @ref LL_RCC_SYSCLK_DIV_6
1171:Drivers/STM32WBxx_HAL_Driver/Inc/stm32wbxx_ll_rcc.h ****   *         @arg @ref LL_RCC_SYSCLK_DIV_8
1172:Drivers/STM32WBxx_HAL_Driver/Inc/stm32wbxx_ll_rcc.h ****   *         @arg @ref LL_RCC_SYSCLK_DIV_10
1173:Drivers/STM32WBxx_HAL_Driver/Inc/stm32wbxx_ll_rcc.h ****   *         @arg @ref LL_RCC_SYSCLK_DIV_16
1174:Drivers/STM32WBxx_HAL_Driver/Inc/stm32wbxx_ll_rcc.h ****   *         @arg @ref LL_RCC_SYSCLK_DIV_32
1175:Drivers/STM32WBxx_HAL_Driver/Inc/stm32wbxx_ll_rcc.h ****   *         @arg @ref LL_RCC_SYSCLK_DIV_64
1176:Drivers/STM32WBxx_HAL_Driver/Inc/stm32wbxx_ll_rcc.h ****   *         @arg @ref LL_RCC_SYSCLK_DIV_128
1177:Drivers/STM32WBxx_HAL_Driver/Inc/stm32wbxx_ll_rcc.h ****   *         @arg @ref LL_RCC_SYSCLK_DIV_256
1178:Drivers/STM32WBxx_HAL_Driver/Inc/stm32wbxx_ll_rcc.h ****   *         @arg @ref LL_RCC_SYSCLK_DIV_512
1179:Drivers/STM32WBxx_HAL_Driver/Inc/stm32wbxx_ll_rcc.h ****   * @retval HCLK2 clock frequency (in Hz)
1180:Drivers/STM32WBxx_HAL_Driver/Inc/stm32wbxx_ll_rcc.h ****   */
1181:Drivers/STM32WBxx_HAL_Driver/Inc/stm32wbxx_ll_rcc.h **** #define __LL_RCC_CALC_HCLK2_FREQ(__SYSCLKFREQ__, __CPU2PRESCALER__) ((__SYSCLKFREQ__) / AHBPrescTab
1182:Drivers/STM32WBxx_HAL_Driver/Inc/stm32wbxx_ll_rcc.h ****                                                                      & RCC_EXTCFGR_C2HPRE) >>  RCC_
1183:Drivers/STM32WBxx_HAL_Driver/Inc/stm32wbxx_ll_rcc.h **** 
ARM GAS  C:\Users\Joshua\AppData\Local\Temp\cchJYxqO.s 			page 56


1184:Drivers/STM32WBxx_HAL_Driver/Inc/stm32wbxx_ll_rcc.h **** /**
1185:Drivers/STM32WBxx_HAL_Driver/Inc/stm32wbxx_ll_rcc.h ****   * @brief  Helper macro to calculate the HCLK4 frequency
1186:Drivers/STM32WBxx_HAL_Driver/Inc/stm32wbxx_ll_rcc.h ****   * @param  __SYSCLKFREQ__ SYSCLK frequency (based on MSI/HSE/HSI/PLLCLK)
1187:Drivers/STM32WBxx_HAL_Driver/Inc/stm32wbxx_ll_rcc.h ****   * @param  __AHB4PRESCALER__ This parameter can be one of the following values:
1188:Drivers/STM32WBxx_HAL_Driver/Inc/stm32wbxx_ll_rcc.h ****   *         @arg @ref LL_RCC_SYSCLK_DIV_1
1189:Drivers/STM32WBxx_HAL_Driver/Inc/stm32wbxx_ll_rcc.h ****   *         @arg @ref LL_RCC_SYSCLK_DIV_2
1190:Drivers/STM32WBxx_HAL_Driver/Inc/stm32wbxx_ll_rcc.h ****   *         @arg @ref LL_RCC_SYSCLK_DIV_3
1191:Drivers/STM32WBxx_HAL_Driver/Inc/stm32wbxx_ll_rcc.h ****   *         @arg @ref LL_RCC_SYSCLK_DIV_4
1192:Drivers/STM32WBxx_HAL_Driver/Inc/stm32wbxx_ll_rcc.h ****   *         @arg @ref LL_RCC_SYSCLK_DIV_5
1193:Drivers/STM32WBxx_HAL_Driver/Inc/stm32wbxx_ll_rcc.h ****   *         @arg @ref LL_RCC_SYSCLK_DIV_6
1194:Drivers/STM32WBxx_HAL_Driver/Inc/stm32wbxx_ll_rcc.h ****   *         @arg @ref LL_RCC_SYSCLK_DIV_8
1195:Drivers/STM32WBxx_HAL_Driver/Inc/stm32wbxx_ll_rcc.h ****   *         @arg @ref LL_RCC_SYSCLK_DIV_10
1196:Drivers/STM32WBxx_HAL_Driver/Inc/stm32wbxx_ll_rcc.h ****   *         @arg @ref LL_RCC_SYSCLK_DIV_16
1197:Drivers/STM32WBxx_HAL_Driver/Inc/stm32wbxx_ll_rcc.h ****   *         @arg @ref LL_RCC_SYSCLK_DIV_32
1198:Drivers/STM32WBxx_HAL_Driver/Inc/stm32wbxx_ll_rcc.h ****   *         @arg @ref LL_RCC_SYSCLK_DIV_64
1199:Drivers/STM32WBxx_HAL_Driver/Inc/stm32wbxx_ll_rcc.h ****   *         @arg @ref LL_RCC_SYSCLK_DIV_128
1200:Drivers/STM32WBxx_HAL_Driver/Inc/stm32wbxx_ll_rcc.h ****   *         @arg @ref LL_RCC_SYSCLK_DIV_256
1201:Drivers/STM32WBxx_HAL_Driver/Inc/stm32wbxx_ll_rcc.h ****   *         @arg @ref LL_RCC_SYSCLK_DIV_512
1202:Drivers/STM32WBxx_HAL_Driver/Inc/stm32wbxx_ll_rcc.h ****   * @retval HCLK4 clock frequency (in Hz)
1203:Drivers/STM32WBxx_HAL_Driver/Inc/stm32wbxx_ll_rcc.h ****   */
1204:Drivers/STM32WBxx_HAL_Driver/Inc/stm32wbxx_ll_rcc.h **** #define __LL_RCC_CALC_HCLK4_FREQ(__SYSCLKFREQ__, __AHB4PRESCALER__) ((__SYSCLKFREQ__) / AHBPrescTab
1205:Drivers/STM32WBxx_HAL_Driver/Inc/stm32wbxx_ll_rcc.h ****                                                                      & RCC_EXTCFGR_SHDHPRE) >>  RCC
1206:Drivers/STM32WBxx_HAL_Driver/Inc/stm32wbxx_ll_rcc.h **** 
1207:Drivers/STM32WBxx_HAL_Driver/Inc/stm32wbxx_ll_rcc.h **** 
1208:Drivers/STM32WBxx_HAL_Driver/Inc/stm32wbxx_ll_rcc.h **** /**
1209:Drivers/STM32WBxx_HAL_Driver/Inc/stm32wbxx_ll_rcc.h ****   * @brief  Helper macro to calculate the PCLK1 frequency (ABP1)
1210:Drivers/STM32WBxx_HAL_Driver/Inc/stm32wbxx_ll_rcc.h ****   * @param  __HCLKFREQ__ HCLK frequency
1211:Drivers/STM32WBxx_HAL_Driver/Inc/stm32wbxx_ll_rcc.h ****   * @param  __APB1PRESCALER__ This parameter can be one of the following values:
1212:Drivers/STM32WBxx_HAL_Driver/Inc/stm32wbxx_ll_rcc.h ****   *         @arg @ref LL_RCC_APB1_DIV_1
1213:Drivers/STM32WBxx_HAL_Driver/Inc/stm32wbxx_ll_rcc.h ****   *         @arg @ref LL_RCC_APB1_DIV_2
1214:Drivers/STM32WBxx_HAL_Driver/Inc/stm32wbxx_ll_rcc.h ****   *         @arg @ref LL_RCC_APB1_DIV_4
1215:Drivers/STM32WBxx_HAL_Driver/Inc/stm32wbxx_ll_rcc.h ****   *         @arg @ref LL_RCC_APB1_DIV_8
1216:Drivers/STM32WBxx_HAL_Driver/Inc/stm32wbxx_ll_rcc.h ****   *         @arg @ref LL_RCC_APB1_DIV_16
1217:Drivers/STM32WBxx_HAL_Driver/Inc/stm32wbxx_ll_rcc.h ****   * @retval PCLK1 clock frequency (in Hz)
1218:Drivers/STM32WBxx_HAL_Driver/Inc/stm32wbxx_ll_rcc.h ****   */
1219:Drivers/STM32WBxx_HAL_Driver/Inc/stm32wbxx_ll_rcc.h **** #define __LL_RCC_CALC_PCLK1_FREQ(__HCLKFREQ__, __APB1PRESCALER__) ((__HCLKFREQ__) >> (APBPrescTable
1220:Drivers/STM32WBxx_HAL_Driver/Inc/stm32wbxx_ll_rcc.h ****                                                                    & RCC_CFGR_PPRE1_Msk) >>  RCC_CF
1221:Drivers/STM32WBxx_HAL_Driver/Inc/stm32wbxx_ll_rcc.h **** 
1222:Drivers/STM32WBxx_HAL_Driver/Inc/stm32wbxx_ll_rcc.h **** /**
1223:Drivers/STM32WBxx_HAL_Driver/Inc/stm32wbxx_ll_rcc.h ****   * @brief  Helper macro to calculate the PCLK2 frequency (ABP2)
1224:Drivers/STM32WBxx_HAL_Driver/Inc/stm32wbxx_ll_rcc.h ****   * @param  __HCLKFREQ__ HCLK frequency
1225:Drivers/STM32WBxx_HAL_Driver/Inc/stm32wbxx_ll_rcc.h ****   * @param  __APB2PRESCALER__ This parameter can be one of the following values:
1226:Drivers/STM32WBxx_HAL_Driver/Inc/stm32wbxx_ll_rcc.h ****   *         @arg @ref LL_RCC_APB2_DIV_1
1227:Drivers/STM32WBxx_HAL_Driver/Inc/stm32wbxx_ll_rcc.h ****   *         @arg @ref LL_RCC_APB2_DIV_2
1228:Drivers/STM32WBxx_HAL_Driver/Inc/stm32wbxx_ll_rcc.h ****   *         @arg @ref LL_RCC_APB2_DIV_4
1229:Drivers/STM32WBxx_HAL_Driver/Inc/stm32wbxx_ll_rcc.h ****   *         @arg @ref LL_RCC_APB2_DIV_8
1230:Drivers/STM32WBxx_HAL_Driver/Inc/stm32wbxx_ll_rcc.h ****   *         @arg @ref LL_RCC_APB2_DIV_16
1231:Drivers/STM32WBxx_HAL_Driver/Inc/stm32wbxx_ll_rcc.h ****   * @retval PCLK2 clock frequency (in Hz)
1232:Drivers/STM32WBxx_HAL_Driver/Inc/stm32wbxx_ll_rcc.h ****   */
1233:Drivers/STM32WBxx_HAL_Driver/Inc/stm32wbxx_ll_rcc.h **** #define __LL_RCC_CALC_PCLK2_FREQ(__HCLKFREQ__, __APB2PRESCALER__) ((__HCLKFREQ__) >> (APBPrescTable
1234:Drivers/STM32WBxx_HAL_Driver/Inc/stm32wbxx_ll_rcc.h ****                                                                    & RCC_CFGR_PPRE2_Msk) >>  RCC_CF
1235:Drivers/STM32WBxx_HAL_Driver/Inc/stm32wbxx_ll_rcc.h **** 
1236:Drivers/STM32WBxx_HAL_Driver/Inc/stm32wbxx_ll_rcc.h **** /**
1237:Drivers/STM32WBxx_HAL_Driver/Inc/stm32wbxx_ll_rcc.h ****   * @brief  Helper macro to calculate the MSI frequency (in Hz)
1238:Drivers/STM32WBxx_HAL_Driver/Inc/stm32wbxx_ll_rcc.h ****   * @note __MSIRANGE__can be retrieved by @ref LL_RCC_MSI_GetRange()
1239:Drivers/STM32WBxx_HAL_Driver/Inc/stm32wbxx_ll_rcc.h ****   * @param  __MSIRANGE__ This parameter can be one of the following values:
1240:Drivers/STM32WBxx_HAL_Driver/Inc/stm32wbxx_ll_rcc.h ****   *         @arg @ref LL_RCC_MSIRANGE_0
ARM GAS  C:\Users\Joshua\AppData\Local\Temp\cchJYxqO.s 			page 57


1241:Drivers/STM32WBxx_HAL_Driver/Inc/stm32wbxx_ll_rcc.h ****   *         @arg @ref LL_RCC_MSIRANGE_1
1242:Drivers/STM32WBxx_HAL_Driver/Inc/stm32wbxx_ll_rcc.h ****   *         @arg @ref LL_RCC_MSIRANGE_2
1243:Drivers/STM32WBxx_HAL_Driver/Inc/stm32wbxx_ll_rcc.h ****   *         @arg @ref LL_RCC_MSIRANGE_3
1244:Drivers/STM32WBxx_HAL_Driver/Inc/stm32wbxx_ll_rcc.h ****   *         @arg @ref LL_RCC_MSIRANGE_4
1245:Drivers/STM32WBxx_HAL_Driver/Inc/stm32wbxx_ll_rcc.h ****   *         @arg @ref LL_RCC_MSIRANGE_5
1246:Drivers/STM32WBxx_HAL_Driver/Inc/stm32wbxx_ll_rcc.h ****   *         @arg @ref LL_RCC_MSIRANGE_6
1247:Drivers/STM32WBxx_HAL_Driver/Inc/stm32wbxx_ll_rcc.h ****   *         @arg @ref LL_RCC_MSIRANGE_7
1248:Drivers/STM32WBxx_HAL_Driver/Inc/stm32wbxx_ll_rcc.h ****   *         @arg @ref LL_RCC_MSIRANGE_8
1249:Drivers/STM32WBxx_HAL_Driver/Inc/stm32wbxx_ll_rcc.h ****   *         @arg @ref LL_RCC_MSIRANGE_9
1250:Drivers/STM32WBxx_HAL_Driver/Inc/stm32wbxx_ll_rcc.h ****   *         @arg @ref LL_RCC_MSIRANGE_10
1251:Drivers/STM32WBxx_HAL_Driver/Inc/stm32wbxx_ll_rcc.h ****   *         @arg @ref LL_RCC_MSIRANGE_11
1252:Drivers/STM32WBxx_HAL_Driver/Inc/stm32wbxx_ll_rcc.h ****   * @retval MSI clock frequency (in Hz)
1253:Drivers/STM32WBxx_HAL_Driver/Inc/stm32wbxx_ll_rcc.h ****   */
1254:Drivers/STM32WBxx_HAL_Driver/Inc/stm32wbxx_ll_rcc.h **** #define __LL_RCC_CALC_MSI_FREQ(__MSIRANGE__) MSIRangeTable[((__MSIRANGE__)\
1255:Drivers/STM32WBxx_HAL_Driver/Inc/stm32wbxx_ll_rcc.h ****                                                             & RCC_CR_MSIRANGE_Msk) >> RCC_CR_MSIRAN
1256:Drivers/STM32WBxx_HAL_Driver/Inc/stm32wbxx_ll_rcc.h **** /**
1257:Drivers/STM32WBxx_HAL_Driver/Inc/stm32wbxx_ll_rcc.h ****   * @}
1258:Drivers/STM32WBxx_HAL_Driver/Inc/stm32wbxx_ll_rcc.h ****   */
1259:Drivers/STM32WBxx_HAL_Driver/Inc/stm32wbxx_ll_rcc.h **** 
1260:Drivers/STM32WBxx_HAL_Driver/Inc/stm32wbxx_ll_rcc.h **** /**
1261:Drivers/STM32WBxx_HAL_Driver/Inc/stm32wbxx_ll_rcc.h ****   * @}
1262:Drivers/STM32WBxx_HAL_Driver/Inc/stm32wbxx_ll_rcc.h ****   */
1263:Drivers/STM32WBxx_HAL_Driver/Inc/stm32wbxx_ll_rcc.h **** 
1264:Drivers/STM32WBxx_HAL_Driver/Inc/stm32wbxx_ll_rcc.h **** /* Exported functions --------------------------------------------------------*/
1265:Drivers/STM32WBxx_HAL_Driver/Inc/stm32wbxx_ll_rcc.h **** /** @defgroup RCC_LL_Exported_Functions RCC Exported Functions
1266:Drivers/STM32WBxx_HAL_Driver/Inc/stm32wbxx_ll_rcc.h ****   * @{
1267:Drivers/STM32WBxx_HAL_Driver/Inc/stm32wbxx_ll_rcc.h ****   */
1268:Drivers/STM32WBxx_HAL_Driver/Inc/stm32wbxx_ll_rcc.h **** 
1269:Drivers/STM32WBxx_HAL_Driver/Inc/stm32wbxx_ll_rcc.h **** /** @defgroup RCC_LL_EF_HSE HSE
1270:Drivers/STM32WBxx_HAL_Driver/Inc/stm32wbxx_ll_rcc.h ****   * @{
1271:Drivers/STM32WBxx_HAL_Driver/Inc/stm32wbxx_ll_rcc.h ****   */
1272:Drivers/STM32WBxx_HAL_Driver/Inc/stm32wbxx_ll_rcc.h **** 
1273:Drivers/STM32WBxx_HAL_Driver/Inc/stm32wbxx_ll_rcc.h **** /**
1274:Drivers/STM32WBxx_HAL_Driver/Inc/stm32wbxx_ll_rcc.h ****   * @brief  Enable HSE sysclk and pll prescaler division by 2
1275:Drivers/STM32WBxx_HAL_Driver/Inc/stm32wbxx_ll_rcc.h ****   * @rmtoll CR           HSEPRE        LL_RCC_HSE_EnableDiv2
1276:Drivers/STM32WBxx_HAL_Driver/Inc/stm32wbxx_ll_rcc.h ****   * @retval None
1277:Drivers/STM32WBxx_HAL_Driver/Inc/stm32wbxx_ll_rcc.h ****   */
1278:Drivers/STM32WBxx_HAL_Driver/Inc/stm32wbxx_ll_rcc.h **** __STATIC_INLINE void LL_RCC_HSE_EnableDiv2(void)
1279:Drivers/STM32WBxx_HAL_Driver/Inc/stm32wbxx_ll_rcc.h **** {
1280:Drivers/STM32WBxx_HAL_Driver/Inc/stm32wbxx_ll_rcc.h ****   SET_BIT(RCC->CR, RCC_CR_HSEPRE);
1281:Drivers/STM32WBxx_HAL_Driver/Inc/stm32wbxx_ll_rcc.h **** }
1282:Drivers/STM32WBxx_HAL_Driver/Inc/stm32wbxx_ll_rcc.h **** 
1283:Drivers/STM32WBxx_HAL_Driver/Inc/stm32wbxx_ll_rcc.h **** /**
1284:Drivers/STM32WBxx_HAL_Driver/Inc/stm32wbxx_ll_rcc.h ****   * @brief  Disable HSE sysclk and pll prescaler
1285:Drivers/STM32WBxx_HAL_Driver/Inc/stm32wbxx_ll_rcc.h ****   * @rmtoll CR           HSEPRE        LL_RCC_HSE_DisableDiv2
1286:Drivers/STM32WBxx_HAL_Driver/Inc/stm32wbxx_ll_rcc.h ****   * @retval None
1287:Drivers/STM32WBxx_HAL_Driver/Inc/stm32wbxx_ll_rcc.h ****   */
1288:Drivers/STM32WBxx_HAL_Driver/Inc/stm32wbxx_ll_rcc.h **** __STATIC_INLINE void LL_RCC_HSE_DisableDiv2(void)
1289:Drivers/STM32WBxx_HAL_Driver/Inc/stm32wbxx_ll_rcc.h **** {
1290:Drivers/STM32WBxx_HAL_Driver/Inc/stm32wbxx_ll_rcc.h ****   CLEAR_BIT(RCC->CR, RCC_CR_HSEPRE);
1291:Drivers/STM32WBxx_HAL_Driver/Inc/stm32wbxx_ll_rcc.h **** }
1292:Drivers/STM32WBxx_HAL_Driver/Inc/stm32wbxx_ll_rcc.h **** 
1293:Drivers/STM32WBxx_HAL_Driver/Inc/stm32wbxx_ll_rcc.h **** /**
1294:Drivers/STM32WBxx_HAL_Driver/Inc/stm32wbxx_ll_rcc.h ****   * @brief  Get HSE sysclk and pll prescaler
1295:Drivers/STM32WBxx_HAL_Driver/Inc/stm32wbxx_ll_rcc.h ****   * @rmtoll CR           HSEPRE        LL_RCC_HSE_IsEnabledDiv2
1296:Drivers/STM32WBxx_HAL_Driver/Inc/stm32wbxx_ll_rcc.h ****   * @retval None
1297:Drivers/STM32WBxx_HAL_Driver/Inc/stm32wbxx_ll_rcc.h ****   */
ARM GAS  C:\Users\Joshua\AppData\Local\Temp\cchJYxqO.s 			page 58


1298:Drivers/STM32WBxx_HAL_Driver/Inc/stm32wbxx_ll_rcc.h **** __STATIC_INLINE uint32_t LL_RCC_HSE_IsEnabledDiv2(void)
1299:Drivers/STM32WBxx_HAL_Driver/Inc/stm32wbxx_ll_rcc.h **** {
1300:Drivers/STM32WBxx_HAL_Driver/Inc/stm32wbxx_ll_rcc.h ****   return ((READ_BIT(RCC->CR, RCC_CR_HSEPRE) == (RCC_CR_HSEPRE)) ? 1UL : 0UL);
1301:Drivers/STM32WBxx_HAL_Driver/Inc/stm32wbxx_ll_rcc.h **** }
1302:Drivers/STM32WBxx_HAL_Driver/Inc/stm32wbxx_ll_rcc.h **** 
1303:Drivers/STM32WBxx_HAL_Driver/Inc/stm32wbxx_ll_rcc.h **** /**
1304:Drivers/STM32WBxx_HAL_Driver/Inc/stm32wbxx_ll_rcc.h ****   * @brief  Enable the Clock Security System.
1305:Drivers/STM32WBxx_HAL_Driver/Inc/stm32wbxx_ll_rcc.h ****   * @rmtoll CR           CSSON         LL_RCC_HSE_EnableCSS
1306:Drivers/STM32WBxx_HAL_Driver/Inc/stm32wbxx_ll_rcc.h ****   * @retval None
1307:Drivers/STM32WBxx_HAL_Driver/Inc/stm32wbxx_ll_rcc.h ****   */
1308:Drivers/STM32WBxx_HAL_Driver/Inc/stm32wbxx_ll_rcc.h **** __STATIC_INLINE void LL_RCC_HSE_EnableCSS(void)
1309:Drivers/STM32WBxx_HAL_Driver/Inc/stm32wbxx_ll_rcc.h **** {
1310:Drivers/STM32WBxx_HAL_Driver/Inc/stm32wbxx_ll_rcc.h ****   SET_BIT(RCC->CR, RCC_CR_CSSON);
1311:Drivers/STM32WBxx_HAL_Driver/Inc/stm32wbxx_ll_rcc.h **** }
1312:Drivers/STM32WBxx_HAL_Driver/Inc/stm32wbxx_ll_rcc.h **** 
1313:Drivers/STM32WBxx_HAL_Driver/Inc/stm32wbxx_ll_rcc.h **** /**
1314:Drivers/STM32WBxx_HAL_Driver/Inc/stm32wbxx_ll_rcc.h ****   * @brief  Enable HSE crystal oscillator (HSE ON)
1315:Drivers/STM32WBxx_HAL_Driver/Inc/stm32wbxx_ll_rcc.h ****   * @rmtoll CR           HSEON         LL_RCC_HSE_Enable
1316:Drivers/STM32WBxx_HAL_Driver/Inc/stm32wbxx_ll_rcc.h ****   * @retval None
1317:Drivers/STM32WBxx_HAL_Driver/Inc/stm32wbxx_ll_rcc.h ****   */
1318:Drivers/STM32WBxx_HAL_Driver/Inc/stm32wbxx_ll_rcc.h **** __STATIC_INLINE void LL_RCC_HSE_Enable(void)
1319:Drivers/STM32WBxx_HAL_Driver/Inc/stm32wbxx_ll_rcc.h **** {
1320:Drivers/STM32WBxx_HAL_Driver/Inc/stm32wbxx_ll_rcc.h ****   SET_BIT(RCC->CR, RCC_CR_HSEON);
1321:Drivers/STM32WBxx_HAL_Driver/Inc/stm32wbxx_ll_rcc.h **** }
1322:Drivers/STM32WBxx_HAL_Driver/Inc/stm32wbxx_ll_rcc.h **** 
1323:Drivers/STM32WBxx_HAL_Driver/Inc/stm32wbxx_ll_rcc.h **** /**
1324:Drivers/STM32WBxx_HAL_Driver/Inc/stm32wbxx_ll_rcc.h ****   * @brief  Disable HSE crystal oscillator (HSE ON)
1325:Drivers/STM32WBxx_HAL_Driver/Inc/stm32wbxx_ll_rcc.h ****   * @rmtoll CR           HSEON         LL_RCC_HSE_Disable
1326:Drivers/STM32WBxx_HAL_Driver/Inc/stm32wbxx_ll_rcc.h ****   * @retval None
1327:Drivers/STM32WBxx_HAL_Driver/Inc/stm32wbxx_ll_rcc.h ****   */
1328:Drivers/STM32WBxx_HAL_Driver/Inc/stm32wbxx_ll_rcc.h **** __STATIC_INLINE void LL_RCC_HSE_Disable(void)
1329:Drivers/STM32WBxx_HAL_Driver/Inc/stm32wbxx_ll_rcc.h **** {
1330:Drivers/STM32WBxx_HAL_Driver/Inc/stm32wbxx_ll_rcc.h ****   CLEAR_BIT(RCC->CR, RCC_CR_HSEON);
1331:Drivers/STM32WBxx_HAL_Driver/Inc/stm32wbxx_ll_rcc.h **** }
1332:Drivers/STM32WBxx_HAL_Driver/Inc/stm32wbxx_ll_rcc.h **** 
1333:Drivers/STM32WBxx_HAL_Driver/Inc/stm32wbxx_ll_rcc.h **** /**
1334:Drivers/STM32WBxx_HAL_Driver/Inc/stm32wbxx_ll_rcc.h ****   * @brief  Check if HSE oscillator Ready
1335:Drivers/STM32WBxx_HAL_Driver/Inc/stm32wbxx_ll_rcc.h ****   * @rmtoll CR           HSERDY        LL_RCC_HSE_IsReady
1336:Drivers/STM32WBxx_HAL_Driver/Inc/stm32wbxx_ll_rcc.h ****   * @retval State of bit (1 or 0).
1337:Drivers/STM32WBxx_HAL_Driver/Inc/stm32wbxx_ll_rcc.h ****   */
1338:Drivers/STM32WBxx_HAL_Driver/Inc/stm32wbxx_ll_rcc.h **** __STATIC_INLINE uint32_t LL_RCC_HSE_IsReady(void)
1339:Drivers/STM32WBxx_HAL_Driver/Inc/stm32wbxx_ll_rcc.h **** {
1340:Drivers/STM32WBxx_HAL_Driver/Inc/stm32wbxx_ll_rcc.h ****   return ((READ_BIT(RCC->CR, RCC_CR_HSERDY) == (RCC_CR_HSERDY)) ? 1UL : 0UL);
1341:Drivers/STM32WBxx_HAL_Driver/Inc/stm32wbxx_ll_rcc.h **** }
1342:Drivers/STM32WBxx_HAL_Driver/Inc/stm32wbxx_ll_rcc.h **** 
1343:Drivers/STM32WBxx_HAL_Driver/Inc/stm32wbxx_ll_rcc.h **** /**
1344:Drivers/STM32WBxx_HAL_Driver/Inc/stm32wbxx_ll_rcc.h ****   * @brief  Check if HSE clock control register is locked or not
1345:Drivers/STM32WBxx_HAL_Driver/Inc/stm32wbxx_ll_rcc.h ****   * @rmtoll HSECR           UNLOCKED        LL_RCC_HSE_IsClockControlLocked
1346:Drivers/STM32WBxx_HAL_Driver/Inc/stm32wbxx_ll_rcc.h ****   * @retval State of bit (1 or 0).
1347:Drivers/STM32WBxx_HAL_Driver/Inc/stm32wbxx_ll_rcc.h ****   */
1348:Drivers/STM32WBxx_HAL_Driver/Inc/stm32wbxx_ll_rcc.h **** __STATIC_INLINE uint32_t LL_RCC_HSE_IsClockControlLocked(void)
1349:Drivers/STM32WBxx_HAL_Driver/Inc/stm32wbxx_ll_rcc.h **** {
1350:Drivers/STM32WBxx_HAL_Driver/Inc/stm32wbxx_ll_rcc.h ****   return ((READ_BIT(RCC->HSECR, RCC_HSECR_UNLOCKED) != (RCC_HSECR_UNLOCKED)) ? 1UL : 0UL);
1351:Drivers/STM32WBxx_HAL_Driver/Inc/stm32wbxx_ll_rcc.h **** }
1352:Drivers/STM32WBxx_HAL_Driver/Inc/stm32wbxx_ll_rcc.h **** 
1353:Drivers/STM32WBxx_HAL_Driver/Inc/stm32wbxx_ll_rcc.h **** /**
1354:Drivers/STM32WBxx_HAL_Driver/Inc/stm32wbxx_ll_rcc.h ****   * @brief  Set HSE capacitor tuning
ARM GAS  C:\Users\Joshua\AppData\Local\Temp\cchJYxqO.s 			page 59


1355:Drivers/STM32WBxx_HAL_Driver/Inc/stm32wbxx_ll_rcc.h ****   * @rmtoll HSECR        HSETUNE       LL_RCC_HSE_SetCapacitorTuning
1356:Drivers/STM32WBxx_HAL_Driver/Inc/stm32wbxx_ll_rcc.h ****   * @param  Value Between Min_Data = 0 and Max_Data = 63
1357:Drivers/STM32WBxx_HAL_Driver/Inc/stm32wbxx_ll_rcc.h ****   * @retval None
1358:Drivers/STM32WBxx_HAL_Driver/Inc/stm32wbxx_ll_rcc.h ****   */
1359:Drivers/STM32WBxx_HAL_Driver/Inc/stm32wbxx_ll_rcc.h **** __STATIC_INLINE void LL_RCC_HSE_SetCapacitorTuning(uint32_t Value)
1360:Drivers/STM32WBxx_HAL_Driver/Inc/stm32wbxx_ll_rcc.h **** {
1361:Drivers/STM32WBxx_HAL_Driver/Inc/stm32wbxx_ll_rcc.h ****   WRITE_REG(RCC->HSECR, HSE_CONTROL_UNLOCK_KEY);
1362:Drivers/STM32WBxx_HAL_Driver/Inc/stm32wbxx_ll_rcc.h ****   MODIFY_REG(RCC->HSECR, RCC_HSECR_HSETUNE, Value << RCC_HSECR_HSETUNE_Pos);
1363:Drivers/STM32WBxx_HAL_Driver/Inc/stm32wbxx_ll_rcc.h **** }
1364:Drivers/STM32WBxx_HAL_Driver/Inc/stm32wbxx_ll_rcc.h **** 
1365:Drivers/STM32WBxx_HAL_Driver/Inc/stm32wbxx_ll_rcc.h **** /**
1366:Drivers/STM32WBxx_HAL_Driver/Inc/stm32wbxx_ll_rcc.h ****   * @brief  Get HSE capacitor tuning
1367:Drivers/STM32WBxx_HAL_Driver/Inc/stm32wbxx_ll_rcc.h ****   * @rmtoll HSECR        HSETUNE       LL_RCC_HSE_GetCapacitorTuning
1368:Drivers/STM32WBxx_HAL_Driver/Inc/stm32wbxx_ll_rcc.h ****   * @retval Between Min_Data = 0 and Max_Data = 63
1369:Drivers/STM32WBxx_HAL_Driver/Inc/stm32wbxx_ll_rcc.h ****   */
1370:Drivers/STM32WBxx_HAL_Driver/Inc/stm32wbxx_ll_rcc.h **** __STATIC_INLINE uint32_t LL_RCC_HSE_GetCapacitorTuning(void)
1371:Drivers/STM32WBxx_HAL_Driver/Inc/stm32wbxx_ll_rcc.h **** {
1372:Drivers/STM32WBxx_HAL_Driver/Inc/stm32wbxx_ll_rcc.h ****   return (uint32_t)(READ_BIT(RCC->HSECR, RCC_HSECR_HSETUNE) >> RCC_HSECR_HSETUNE_Pos);
1373:Drivers/STM32WBxx_HAL_Driver/Inc/stm32wbxx_ll_rcc.h **** }
1374:Drivers/STM32WBxx_HAL_Driver/Inc/stm32wbxx_ll_rcc.h **** 
1375:Drivers/STM32WBxx_HAL_Driver/Inc/stm32wbxx_ll_rcc.h **** /**
1376:Drivers/STM32WBxx_HAL_Driver/Inc/stm32wbxx_ll_rcc.h ****   * @brief  Set HSE current control
1377:Drivers/STM32WBxx_HAL_Driver/Inc/stm32wbxx_ll_rcc.h ****   * @rmtoll HSECR        HSEGMC       LL_RCC_HSE_SetCurrentControl
1378:Drivers/STM32WBxx_HAL_Driver/Inc/stm32wbxx_ll_rcc.h ****   * @param  CurrentMax This parameter can be one of the following values:
1379:Drivers/STM32WBxx_HAL_Driver/Inc/stm32wbxx_ll_rcc.h ****   *         @arg @ref LL_RCC_HSE_CURRENTMAX_0
1380:Drivers/STM32WBxx_HAL_Driver/Inc/stm32wbxx_ll_rcc.h ****   *         @arg @ref LL_RCC_HSE_CURRENTMAX_1
1381:Drivers/STM32WBxx_HAL_Driver/Inc/stm32wbxx_ll_rcc.h ****   *         @arg @ref LL_RCC_HSE_CURRENTMAX_2
1382:Drivers/STM32WBxx_HAL_Driver/Inc/stm32wbxx_ll_rcc.h ****   *         @arg @ref LL_RCC_HSE_CURRENTMAX_3
1383:Drivers/STM32WBxx_HAL_Driver/Inc/stm32wbxx_ll_rcc.h ****   *         @arg @ref LL_RCC_HSE_CURRENTMAX_4
1384:Drivers/STM32WBxx_HAL_Driver/Inc/stm32wbxx_ll_rcc.h ****   *         @arg @ref LL_RCC_HSE_CURRENTMAX_5
1385:Drivers/STM32WBxx_HAL_Driver/Inc/stm32wbxx_ll_rcc.h ****   *         @arg @ref LL_RCC_HSE_CURRENTMAX_6
1386:Drivers/STM32WBxx_HAL_Driver/Inc/stm32wbxx_ll_rcc.h ****   *         @arg @ref LL_RCC_HSE_CURRENTMAX_7
1387:Drivers/STM32WBxx_HAL_Driver/Inc/stm32wbxx_ll_rcc.h ****   */
1388:Drivers/STM32WBxx_HAL_Driver/Inc/stm32wbxx_ll_rcc.h **** __STATIC_INLINE void LL_RCC_HSE_SetCurrentControl(uint32_t CurrentMax)
1389:Drivers/STM32WBxx_HAL_Driver/Inc/stm32wbxx_ll_rcc.h **** {
1390:Drivers/STM32WBxx_HAL_Driver/Inc/stm32wbxx_ll_rcc.h ****   WRITE_REG(RCC->HSECR, HSE_CONTROL_UNLOCK_KEY);
1391:Drivers/STM32WBxx_HAL_Driver/Inc/stm32wbxx_ll_rcc.h ****   MODIFY_REG(RCC->HSECR, RCC_HSECR_HSEGMC, CurrentMax);
1392:Drivers/STM32WBxx_HAL_Driver/Inc/stm32wbxx_ll_rcc.h **** }
1393:Drivers/STM32WBxx_HAL_Driver/Inc/stm32wbxx_ll_rcc.h **** 
1394:Drivers/STM32WBxx_HAL_Driver/Inc/stm32wbxx_ll_rcc.h **** /**
1395:Drivers/STM32WBxx_HAL_Driver/Inc/stm32wbxx_ll_rcc.h ****   * @brief  Get HSE current control
1396:Drivers/STM32WBxx_HAL_Driver/Inc/stm32wbxx_ll_rcc.h ****   * @rmtoll HSECR        HSEGMC       LL_RCC_HSE_GetCurrentControl
1397:Drivers/STM32WBxx_HAL_Driver/Inc/stm32wbxx_ll_rcc.h ****   * @retval Returned value can be one of the following values:
1398:Drivers/STM32WBxx_HAL_Driver/Inc/stm32wbxx_ll_rcc.h ****   *         @arg @ref LL_RCC_HSE_CURRENTMAX_0
1399:Drivers/STM32WBxx_HAL_Driver/Inc/stm32wbxx_ll_rcc.h ****   *         @arg @ref LL_RCC_HSE_CURRENTMAX_1
1400:Drivers/STM32WBxx_HAL_Driver/Inc/stm32wbxx_ll_rcc.h ****   *         @arg @ref LL_RCC_HSE_CURRENTMAX_2
1401:Drivers/STM32WBxx_HAL_Driver/Inc/stm32wbxx_ll_rcc.h ****   *         @arg @ref LL_RCC_HSE_CURRENTMAX_3
1402:Drivers/STM32WBxx_HAL_Driver/Inc/stm32wbxx_ll_rcc.h ****   *         @arg @ref LL_RCC_HSE_CURRENTMAX_4
1403:Drivers/STM32WBxx_HAL_Driver/Inc/stm32wbxx_ll_rcc.h ****   *         @arg @ref LL_RCC_HSE_CURRENTMAX_5
1404:Drivers/STM32WBxx_HAL_Driver/Inc/stm32wbxx_ll_rcc.h ****   *         @arg @ref LL_RCC_HSE_CURRENTMAX_6
1405:Drivers/STM32WBxx_HAL_Driver/Inc/stm32wbxx_ll_rcc.h ****   *         @arg @ref LL_RCC_HSE_CURRENTMAX_7
1406:Drivers/STM32WBxx_HAL_Driver/Inc/stm32wbxx_ll_rcc.h ****   */
1407:Drivers/STM32WBxx_HAL_Driver/Inc/stm32wbxx_ll_rcc.h **** __STATIC_INLINE uint32_t LL_RCC_HSE_GetCurrentControl(void)
1408:Drivers/STM32WBxx_HAL_Driver/Inc/stm32wbxx_ll_rcc.h **** {
1409:Drivers/STM32WBxx_HAL_Driver/Inc/stm32wbxx_ll_rcc.h ****   return (uint32_t)(READ_BIT(RCC->HSECR, RCC_HSECR_HSEGMC));
1410:Drivers/STM32WBxx_HAL_Driver/Inc/stm32wbxx_ll_rcc.h **** }
1411:Drivers/STM32WBxx_HAL_Driver/Inc/stm32wbxx_ll_rcc.h **** 
ARM GAS  C:\Users\Joshua\AppData\Local\Temp\cchJYxqO.s 			page 60


1412:Drivers/STM32WBxx_HAL_Driver/Inc/stm32wbxx_ll_rcc.h **** /**
1413:Drivers/STM32WBxx_HAL_Driver/Inc/stm32wbxx_ll_rcc.h ****   * @brief  Set HSE sense amplifier threshold
1414:Drivers/STM32WBxx_HAL_Driver/Inc/stm32wbxx_ll_rcc.h ****   * @rmtoll HSECR        HSES       LL_RCC_HSE_SetSenseAmplifier
1415:Drivers/STM32WBxx_HAL_Driver/Inc/stm32wbxx_ll_rcc.h ****   * @param  SenseAmplifier This parameter can be one of the following values:
1416:Drivers/STM32WBxx_HAL_Driver/Inc/stm32wbxx_ll_rcc.h ****   *         @arg @ref LL_RCC_HSEAMPTHRESHOLD_1_2
1417:Drivers/STM32WBxx_HAL_Driver/Inc/stm32wbxx_ll_rcc.h ****   *         @arg @ref LL_RCC_HSEAMPTHRESHOLD_3_4
1418:Drivers/STM32WBxx_HAL_Driver/Inc/stm32wbxx_ll_rcc.h ****   */
1419:Drivers/STM32WBxx_HAL_Driver/Inc/stm32wbxx_ll_rcc.h **** __STATIC_INLINE void LL_RCC_HSE_SetSenseAmplifier(uint32_t SenseAmplifier)
1420:Drivers/STM32WBxx_HAL_Driver/Inc/stm32wbxx_ll_rcc.h **** {
1421:Drivers/STM32WBxx_HAL_Driver/Inc/stm32wbxx_ll_rcc.h ****   WRITE_REG(RCC->HSECR, HSE_CONTROL_UNLOCK_KEY);
1422:Drivers/STM32WBxx_HAL_Driver/Inc/stm32wbxx_ll_rcc.h ****   MODIFY_REG(RCC->HSECR, RCC_HSECR_HSES, SenseAmplifier);
1423:Drivers/STM32WBxx_HAL_Driver/Inc/stm32wbxx_ll_rcc.h **** }
1424:Drivers/STM32WBxx_HAL_Driver/Inc/stm32wbxx_ll_rcc.h **** 
1425:Drivers/STM32WBxx_HAL_Driver/Inc/stm32wbxx_ll_rcc.h **** /**
1426:Drivers/STM32WBxx_HAL_Driver/Inc/stm32wbxx_ll_rcc.h ****   * @brief  Get HSE current control
1427:Drivers/STM32WBxx_HAL_Driver/Inc/stm32wbxx_ll_rcc.h ****   * @rmtoll HSECR        HSES       LL_RCC_HSE_GetSenseAmplifier
1428:Drivers/STM32WBxx_HAL_Driver/Inc/stm32wbxx_ll_rcc.h ****   * @retval Returned value can be one of the following values:
1429:Drivers/STM32WBxx_HAL_Driver/Inc/stm32wbxx_ll_rcc.h ****   *         @arg @ref LL_RCC_HSEAMPTHRESHOLD_1_2
1430:Drivers/STM32WBxx_HAL_Driver/Inc/stm32wbxx_ll_rcc.h ****   *         @arg @ref LL_RCC_HSEAMPTHRESHOLD_3_4
1431:Drivers/STM32WBxx_HAL_Driver/Inc/stm32wbxx_ll_rcc.h ****   */
1432:Drivers/STM32WBxx_HAL_Driver/Inc/stm32wbxx_ll_rcc.h **** __STATIC_INLINE uint32_t LL_RCC_HSE_GetSenseAmplifier(void)
1433:Drivers/STM32WBxx_HAL_Driver/Inc/stm32wbxx_ll_rcc.h **** {
1434:Drivers/STM32WBxx_HAL_Driver/Inc/stm32wbxx_ll_rcc.h ****   return (uint32_t)(READ_BIT(RCC->HSECR, RCC_HSECR_HSES));
1435:Drivers/STM32WBxx_HAL_Driver/Inc/stm32wbxx_ll_rcc.h **** }
1436:Drivers/STM32WBxx_HAL_Driver/Inc/stm32wbxx_ll_rcc.h **** /**
1437:Drivers/STM32WBxx_HAL_Driver/Inc/stm32wbxx_ll_rcc.h ****   * @}
1438:Drivers/STM32WBxx_HAL_Driver/Inc/stm32wbxx_ll_rcc.h ****   */
1439:Drivers/STM32WBxx_HAL_Driver/Inc/stm32wbxx_ll_rcc.h **** 
1440:Drivers/STM32WBxx_HAL_Driver/Inc/stm32wbxx_ll_rcc.h **** /** @defgroup RCC_LL_EF_HSI HSI
1441:Drivers/STM32WBxx_HAL_Driver/Inc/stm32wbxx_ll_rcc.h ****   * @{
1442:Drivers/STM32WBxx_HAL_Driver/Inc/stm32wbxx_ll_rcc.h ****   */
1443:Drivers/STM32WBxx_HAL_Driver/Inc/stm32wbxx_ll_rcc.h **** 
1444:Drivers/STM32WBxx_HAL_Driver/Inc/stm32wbxx_ll_rcc.h **** /**
1445:Drivers/STM32WBxx_HAL_Driver/Inc/stm32wbxx_ll_rcc.h ****   * @brief  Enable HSI even in stop mode
1446:Drivers/STM32WBxx_HAL_Driver/Inc/stm32wbxx_ll_rcc.h ****   * @note HSI oscillator is forced ON even in Stop mode
1447:Drivers/STM32WBxx_HAL_Driver/Inc/stm32wbxx_ll_rcc.h ****   * @rmtoll CR           HSIKERON      LL_RCC_HSI_EnableInStopMode
1448:Drivers/STM32WBxx_HAL_Driver/Inc/stm32wbxx_ll_rcc.h ****   * @retval None
1449:Drivers/STM32WBxx_HAL_Driver/Inc/stm32wbxx_ll_rcc.h ****   */
1450:Drivers/STM32WBxx_HAL_Driver/Inc/stm32wbxx_ll_rcc.h **** __STATIC_INLINE void LL_RCC_HSI_EnableInStopMode(void)
1451:Drivers/STM32WBxx_HAL_Driver/Inc/stm32wbxx_ll_rcc.h **** {
1452:Drivers/STM32WBxx_HAL_Driver/Inc/stm32wbxx_ll_rcc.h ****   SET_BIT(RCC->CR, RCC_CR_HSIKERON);
1453:Drivers/STM32WBxx_HAL_Driver/Inc/stm32wbxx_ll_rcc.h **** }
1454:Drivers/STM32WBxx_HAL_Driver/Inc/stm32wbxx_ll_rcc.h **** 
1455:Drivers/STM32WBxx_HAL_Driver/Inc/stm32wbxx_ll_rcc.h **** /**
1456:Drivers/STM32WBxx_HAL_Driver/Inc/stm32wbxx_ll_rcc.h ****   * @brief  Disable HSI in stop mode
1457:Drivers/STM32WBxx_HAL_Driver/Inc/stm32wbxx_ll_rcc.h ****   * @rmtoll CR           HSIKERON      LL_RCC_HSI_DisableInStopMode
1458:Drivers/STM32WBxx_HAL_Driver/Inc/stm32wbxx_ll_rcc.h ****   * @retval None
1459:Drivers/STM32WBxx_HAL_Driver/Inc/stm32wbxx_ll_rcc.h ****   */
1460:Drivers/STM32WBxx_HAL_Driver/Inc/stm32wbxx_ll_rcc.h **** __STATIC_INLINE void LL_RCC_HSI_DisableInStopMode(void)
1461:Drivers/STM32WBxx_HAL_Driver/Inc/stm32wbxx_ll_rcc.h **** {
1462:Drivers/STM32WBxx_HAL_Driver/Inc/stm32wbxx_ll_rcc.h ****   CLEAR_BIT(RCC->CR, RCC_CR_HSIKERON);
1463:Drivers/STM32WBxx_HAL_Driver/Inc/stm32wbxx_ll_rcc.h **** }
1464:Drivers/STM32WBxx_HAL_Driver/Inc/stm32wbxx_ll_rcc.h **** 
1465:Drivers/STM32WBxx_HAL_Driver/Inc/stm32wbxx_ll_rcc.h **** /**
1466:Drivers/STM32WBxx_HAL_Driver/Inc/stm32wbxx_ll_rcc.h ****   * @brief  Check if HSI in stop mode is ready
1467:Drivers/STM32WBxx_HAL_Driver/Inc/stm32wbxx_ll_rcc.h ****   * @rmtoll CR           HSIKERON        LL_RCC_HSI_IsEnabledInStopMode
1468:Drivers/STM32WBxx_HAL_Driver/Inc/stm32wbxx_ll_rcc.h ****   * @retval State of bit (1 or 0).
ARM GAS  C:\Users\Joshua\AppData\Local\Temp\cchJYxqO.s 			page 61


1469:Drivers/STM32WBxx_HAL_Driver/Inc/stm32wbxx_ll_rcc.h ****   */
1470:Drivers/STM32WBxx_HAL_Driver/Inc/stm32wbxx_ll_rcc.h **** __STATIC_INLINE uint32_t LL_RCC_HSI_IsEnabledInStopMode(void)
1471:Drivers/STM32WBxx_HAL_Driver/Inc/stm32wbxx_ll_rcc.h **** {
1472:Drivers/STM32WBxx_HAL_Driver/Inc/stm32wbxx_ll_rcc.h ****   return ((READ_BIT(RCC->CR, RCC_CR_HSIKERON) == (RCC_CR_HSIKERON)) ? 1UL : 0UL);
1473:Drivers/STM32WBxx_HAL_Driver/Inc/stm32wbxx_ll_rcc.h **** }
1474:Drivers/STM32WBxx_HAL_Driver/Inc/stm32wbxx_ll_rcc.h **** 
1475:Drivers/STM32WBxx_HAL_Driver/Inc/stm32wbxx_ll_rcc.h **** /**
1476:Drivers/STM32WBxx_HAL_Driver/Inc/stm32wbxx_ll_rcc.h ****   * @brief  Enable HSI oscillator
1477:Drivers/STM32WBxx_HAL_Driver/Inc/stm32wbxx_ll_rcc.h ****   * @rmtoll CR           HSION         LL_RCC_HSI_Enable
1478:Drivers/STM32WBxx_HAL_Driver/Inc/stm32wbxx_ll_rcc.h ****   * @retval None
1479:Drivers/STM32WBxx_HAL_Driver/Inc/stm32wbxx_ll_rcc.h ****   */
1480:Drivers/STM32WBxx_HAL_Driver/Inc/stm32wbxx_ll_rcc.h **** __STATIC_INLINE void LL_RCC_HSI_Enable(void)
1481:Drivers/STM32WBxx_HAL_Driver/Inc/stm32wbxx_ll_rcc.h **** {
1482:Drivers/STM32WBxx_HAL_Driver/Inc/stm32wbxx_ll_rcc.h ****   SET_BIT(RCC->CR, RCC_CR_HSION);
1483:Drivers/STM32WBxx_HAL_Driver/Inc/stm32wbxx_ll_rcc.h **** }
1484:Drivers/STM32WBxx_HAL_Driver/Inc/stm32wbxx_ll_rcc.h **** 
1485:Drivers/STM32WBxx_HAL_Driver/Inc/stm32wbxx_ll_rcc.h **** /**
1486:Drivers/STM32WBxx_HAL_Driver/Inc/stm32wbxx_ll_rcc.h ****   * @brief  Disable HSI oscillator
1487:Drivers/STM32WBxx_HAL_Driver/Inc/stm32wbxx_ll_rcc.h ****   * @rmtoll CR           HSION         LL_RCC_HSI_Disable
1488:Drivers/STM32WBxx_HAL_Driver/Inc/stm32wbxx_ll_rcc.h ****   * @retval None
1489:Drivers/STM32WBxx_HAL_Driver/Inc/stm32wbxx_ll_rcc.h ****   */
1490:Drivers/STM32WBxx_HAL_Driver/Inc/stm32wbxx_ll_rcc.h **** __STATIC_INLINE void LL_RCC_HSI_Disable(void)
1491:Drivers/STM32WBxx_HAL_Driver/Inc/stm32wbxx_ll_rcc.h **** {
1492:Drivers/STM32WBxx_HAL_Driver/Inc/stm32wbxx_ll_rcc.h ****   CLEAR_BIT(RCC->CR, RCC_CR_HSION);
1493:Drivers/STM32WBxx_HAL_Driver/Inc/stm32wbxx_ll_rcc.h **** }
1494:Drivers/STM32WBxx_HAL_Driver/Inc/stm32wbxx_ll_rcc.h **** 
1495:Drivers/STM32WBxx_HAL_Driver/Inc/stm32wbxx_ll_rcc.h **** /**
1496:Drivers/STM32WBxx_HAL_Driver/Inc/stm32wbxx_ll_rcc.h ****   * @brief  Check if HSI clock is ready
1497:Drivers/STM32WBxx_HAL_Driver/Inc/stm32wbxx_ll_rcc.h ****   * @rmtoll CR           HSIRDY        LL_RCC_HSI_IsReady
1498:Drivers/STM32WBxx_HAL_Driver/Inc/stm32wbxx_ll_rcc.h ****   * @retval State of bit (1 or 0).
1499:Drivers/STM32WBxx_HAL_Driver/Inc/stm32wbxx_ll_rcc.h ****   */
1500:Drivers/STM32WBxx_HAL_Driver/Inc/stm32wbxx_ll_rcc.h **** __STATIC_INLINE uint32_t LL_RCC_HSI_IsReady(void)
1501:Drivers/STM32WBxx_HAL_Driver/Inc/stm32wbxx_ll_rcc.h **** {
1502:Drivers/STM32WBxx_HAL_Driver/Inc/stm32wbxx_ll_rcc.h ****   return ((READ_BIT(RCC->CR, RCC_CR_HSIRDY) == (RCC_CR_HSIRDY)) ? 1UL : 0UL);
1503:Drivers/STM32WBxx_HAL_Driver/Inc/stm32wbxx_ll_rcc.h **** }
1504:Drivers/STM32WBxx_HAL_Driver/Inc/stm32wbxx_ll_rcc.h **** 
1505:Drivers/STM32WBxx_HAL_Driver/Inc/stm32wbxx_ll_rcc.h **** /**
1506:Drivers/STM32WBxx_HAL_Driver/Inc/stm32wbxx_ll_rcc.h ****   * @brief  Enable HSI Automatic from stop mode
1507:Drivers/STM32WBxx_HAL_Driver/Inc/stm32wbxx_ll_rcc.h ****   * @rmtoll CR           HSIASFS       LL_RCC_HSI_EnableAutoFromStop
1508:Drivers/STM32WBxx_HAL_Driver/Inc/stm32wbxx_ll_rcc.h ****   * @retval None
1509:Drivers/STM32WBxx_HAL_Driver/Inc/stm32wbxx_ll_rcc.h ****   */
1510:Drivers/STM32WBxx_HAL_Driver/Inc/stm32wbxx_ll_rcc.h **** __STATIC_INLINE void LL_RCC_HSI_EnableAutoFromStop(void)
1511:Drivers/STM32WBxx_HAL_Driver/Inc/stm32wbxx_ll_rcc.h **** {
1512:Drivers/STM32WBxx_HAL_Driver/Inc/stm32wbxx_ll_rcc.h ****   SET_BIT(RCC->CR, RCC_CR_HSIASFS);
1513:Drivers/STM32WBxx_HAL_Driver/Inc/stm32wbxx_ll_rcc.h **** }
1514:Drivers/STM32WBxx_HAL_Driver/Inc/stm32wbxx_ll_rcc.h **** 
1515:Drivers/STM32WBxx_HAL_Driver/Inc/stm32wbxx_ll_rcc.h **** /**
1516:Drivers/STM32WBxx_HAL_Driver/Inc/stm32wbxx_ll_rcc.h ****   * @brief  Disable HSI Automatic from stop mode
1517:Drivers/STM32WBxx_HAL_Driver/Inc/stm32wbxx_ll_rcc.h ****   * @rmtoll CR           HSIASFS       LL_RCC_HSI_DisableAutoFromStop
1518:Drivers/STM32WBxx_HAL_Driver/Inc/stm32wbxx_ll_rcc.h ****   * @retval None
1519:Drivers/STM32WBxx_HAL_Driver/Inc/stm32wbxx_ll_rcc.h ****   */
1520:Drivers/STM32WBxx_HAL_Driver/Inc/stm32wbxx_ll_rcc.h **** __STATIC_INLINE void LL_RCC_HSI_DisableAutoFromStop(void)
1521:Drivers/STM32WBxx_HAL_Driver/Inc/stm32wbxx_ll_rcc.h **** {
1522:Drivers/STM32WBxx_HAL_Driver/Inc/stm32wbxx_ll_rcc.h ****   CLEAR_BIT(RCC->CR, RCC_CR_HSIASFS);
1523:Drivers/STM32WBxx_HAL_Driver/Inc/stm32wbxx_ll_rcc.h **** }
1524:Drivers/STM32WBxx_HAL_Driver/Inc/stm32wbxx_ll_rcc.h **** /**
1525:Drivers/STM32WBxx_HAL_Driver/Inc/stm32wbxx_ll_rcc.h ****   * @brief  Get HSI Calibration value
ARM GAS  C:\Users\Joshua\AppData\Local\Temp\cchJYxqO.s 			page 62


1526:Drivers/STM32WBxx_HAL_Driver/Inc/stm32wbxx_ll_rcc.h ****   * @note When HSITRIM is written, HSICAL is updated with the sum of
1527:Drivers/STM32WBxx_HAL_Driver/Inc/stm32wbxx_ll_rcc.h ****   *       HSITRIM and the factory trim value
1528:Drivers/STM32WBxx_HAL_Driver/Inc/stm32wbxx_ll_rcc.h ****   * @rmtoll ICSCR        HSICAL        LL_RCC_HSI_GetCalibration
1529:Drivers/STM32WBxx_HAL_Driver/Inc/stm32wbxx_ll_rcc.h ****   * @retval Between Min_Data = 0x00 and Max_Data = 0xFF
1530:Drivers/STM32WBxx_HAL_Driver/Inc/stm32wbxx_ll_rcc.h ****   */
1531:Drivers/STM32WBxx_HAL_Driver/Inc/stm32wbxx_ll_rcc.h **** __STATIC_INLINE uint32_t LL_RCC_HSI_GetCalibration(void)
1532:Drivers/STM32WBxx_HAL_Driver/Inc/stm32wbxx_ll_rcc.h **** {
1533:Drivers/STM32WBxx_HAL_Driver/Inc/stm32wbxx_ll_rcc.h ****   return (uint32_t)(READ_BIT(RCC->ICSCR, RCC_ICSCR_HSICAL) >> RCC_ICSCR_HSICAL_Pos);
1534:Drivers/STM32WBxx_HAL_Driver/Inc/stm32wbxx_ll_rcc.h **** }
1535:Drivers/STM32WBxx_HAL_Driver/Inc/stm32wbxx_ll_rcc.h **** 
1536:Drivers/STM32WBxx_HAL_Driver/Inc/stm32wbxx_ll_rcc.h **** /**
1537:Drivers/STM32WBxx_HAL_Driver/Inc/stm32wbxx_ll_rcc.h ****   * @brief  Set HSI Calibration trimming
1538:Drivers/STM32WBxx_HAL_Driver/Inc/stm32wbxx_ll_rcc.h ****   * @note user-programmable trimming value that is added to the HSICAL
1539:Drivers/STM32WBxx_HAL_Driver/Inc/stm32wbxx_ll_rcc.h ****   * @note Default value is 64, which, when added to the HSICAL value,
1540:Drivers/STM32WBxx_HAL_Driver/Inc/stm32wbxx_ll_rcc.h ****   *       should trim the HSI to 16 MHz +/- 1 %
1541:Drivers/STM32WBxx_HAL_Driver/Inc/stm32wbxx_ll_rcc.h ****   * @rmtoll ICSCR        HSITRIM       LL_RCC_HSI_SetCalibTrimming
1542:Drivers/STM32WBxx_HAL_Driver/Inc/stm32wbxx_ll_rcc.h ****   * @param  Value Between Min_Data = 0 and Max_Data = 127
1543:Drivers/STM32WBxx_HAL_Driver/Inc/stm32wbxx_ll_rcc.h ****   * @retval None
1544:Drivers/STM32WBxx_HAL_Driver/Inc/stm32wbxx_ll_rcc.h ****   */
1545:Drivers/STM32WBxx_HAL_Driver/Inc/stm32wbxx_ll_rcc.h **** __STATIC_INLINE void LL_RCC_HSI_SetCalibTrimming(uint32_t Value)
1546:Drivers/STM32WBxx_HAL_Driver/Inc/stm32wbxx_ll_rcc.h **** {
1547:Drivers/STM32WBxx_HAL_Driver/Inc/stm32wbxx_ll_rcc.h ****   MODIFY_REG(RCC->ICSCR, RCC_ICSCR_HSITRIM, Value << RCC_ICSCR_HSITRIM_Pos);
1548:Drivers/STM32WBxx_HAL_Driver/Inc/stm32wbxx_ll_rcc.h **** }
1549:Drivers/STM32WBxx_HAL_Driver/Inc/stm32wbxx_ll_rcc.h **** 
1550:Drivers/STM32WBxx_HAL_Driver/Inc/stm32wbxx_ll_rcc.h **** /**
1551:Drivers/STM32WBxx_HAL_Driver/Inc/stm32wbxx_ll_rcc.h ****   * @brief  Get HSI Calibration trimming
1552:Drivers/STM32WBxx_HAL_Driver/Inc/stm32wbxx_ll_rcc.h ****   * @rmtoll ICSCR        HSITRIM       LL_RCC_HSI_GetCalibTrimming
1553:Drivers/STM32WBxx_HAL_Driver/Inc/stm32wbxx_ll_rcc.h ****   * @retval Between Min_Data = 0 and Max_Data = 127
1554:Drivers/STM32WBxx_HAL_Driver/Inc/stm32wbxx_ll_rcc.h ****   */
1555:Drivers/STM32WBxx_HAL_Driver/Inc/stm32wbxx_ll_rcc.h **** __STATIC_INLINE uint32_t LL_RCC_HSI_GetCalibTrimming(void)
1556:Drivers/STM32WBxx_HAL_Driver/Inc/stm32wbxx_ll_rcc.h **** {
1557:Drivers/STM32WBxx_HAL_Driver/Inc/stm32wbxx_ll_rcc.h ****   return (uint32_t)(READ_BIT(RCC->ICSCR, RCC_ICSCR_HSITRIM) >> RCC_ICSCR_HSITRIM_Pos);
1558:Drivers/STM32WBxx_HAL_Driver/Inc/stm32wbxx_ll_rcc.h **** }
1559:Drivers/STM32WBxx_HAL_Driver/Inc/stm32wbxx_ll_rcc.h **** 
1560:Drivers/STM32WBxx_HAL_Driver/Inc/stm32wbxx_ll_rcc.h **** /**
1561:Drivers/STM32WBxx_HAL_Driver/Inc/stm32wbxx_ll_rcc.h ****   * @}
1562:Drivers/STM32WBxx_HAL_Driver/Inc/stm32wbxx_ll_rcc.h ****   */
1563:Drivers/STM32WBxx_HAL_Driver/Inc/stm32wbxx_ll_rcc.h **** 
1564:Drivers/STM32WBxx_HAL_Driver/Inc/stm32wbxx_ll_rcc.h **** #if defined(RCC_HSI48_SUPPORT)
1565:Drivers/STM32WBxx_HAL_Driver/Inc/stm32wbxx_ll_rcc.h **** /** @defgroup RCC_LL_EF_HSI48 HSI48
1566:Drivers/STM32WBxx_HAL_Driver/Inc/stm32wbxx_ll_rcc.h ****   * @{
1567:Drivers/STM32WBxx_HAL_Driver/Inc/stm32wbxx_ll_rcc.h ****   */
1568:Drivers/STM32WBxx_HAL_Driver/Inc/stm32wbxx_ll_rcc.h **** 
1569:Drivers/STM32WBxx_HAL_Driver/Inc/stm32wbxx_ll_rcc.h **** /**
1570:Drivers/STM32WBxx_HAL_Driver/Inc/stm32wbxx_ll_rcc.h ****   * @brief  Enable HSI48
1571:Drivers/STM32WBxx_HAL_Driver/Inc/stm32wbxx_ll_rcc.h ****   * @rmtoll CRRCR          HSI48ON       LL_RCC_HSI48_Enable
1572:Drivers/STM32WBxx_HAL_Driver/Inc/stm32wbxx_ll_rcc.h ****   * @retval None
1573:Drivers/STM32WBxx_HAL_Driver/Inc/stm32wbxx_ll_rcc.h ****   */
1574:Drivers/STM32WBxx_HAL_Driver/Inc/stm32wbxx_ll_rcc.h **** __STATIC_INLINE void LL_RCC_HSI48_Enable(void)
1575:Drivers/STM32WBxx_HAL_Driver/Inc/stm32wbxx_ll_rcc.h **** {
1576:Drivers/STM32WBxx_HAL_Driver/Inc/stm32wbxx_ll_rcc.h ****   SET_BIT(RCC->CRRCR, RCC_CRRCR_HSI48ON);
1577:Drivers/STM32WBxx_HAL_Driver/Inc/stm32wbxx_ll_rcc.h **** }
1578:Drivers/STM32WBxx_HAL_Driver/Inc/stm32wbxx_ll_rcc.h **** 
1579:Drivers/STM32WBxx_HAL_Driver/Inc/stm32wbxx_ll_rcc.h **** /**
1580:Drivers/STM32WBxx_HAL_Driver/Inc/stm32wbxx_ll_rcc.h ****   * @brief  Disable HSI48
1581:Drivers/STM32WBxx_HAL_Driver/Inc/stm32wbxx_ll_rcc.h ****   * @rmtoll CRRCR          HSI48ON       LL_RCC_HSI48_Disable
1582:Drivers/STM32WBxx_HAL_Driver/Inc/stm32wbxx_ll_rcc.h ****   * @retval None
ARM GAS  C:\Users\Joshua\AppData\Local\Temp\cchJYxqO.s 			page 63


1583:Drivers/STM32WBxx_HAL_Driver/Inc/stm32wbxx_ll_rcc.h ****   */
1584:Drivers/STM32WBxx_HAL_Driver/Inc/stm32wbxx_ll_rcc.h **** __STATIC_INLINE void LL_RCC_HSI48_Disable(void)
1585:Drivers/STM32WBxx_HAL_Driver/Inc/stm32wbxx_ll_rcc.h **** {
1586:Drivers/STM32WBxx_HAL_Driver/Inc/stm32wbxx_ll_rcc.h ****   CLEAR_BIT(RCC->CRRCR, RCC_CRRCR_HSI48ON);
1587:Drivers/STM32WBxx_HAL_Driver/Inc/stm32wbxx_ll_rcc.h **** }
1588:Drivers/STM32WBxx_HAL_Driver/Inc/stm32wbxx_ll_rcc.h **** 
1589:Drivers/STM32WBxx_HAL_Driver/Inc/stm32wbxx_ll_rcc.h **** /**
1590:Drivers/STM32WBxx_HAL_Driver/Inc/stm32wbxx_ll_rcc.h ****   * @brief  Check if HSI48 oscillator Ready
1591:Drivers/STM32WBxx_HAL_Driver/Inc/stm32wbxx_ll_rcc.h ****   * @rmtoll CRRCR          HSI48RDY      LL_RCC_HSI48_IsReady
1592:Drivers/STM32WBxx_HAL_Driver/Inc/stm32wbxx_ll_rcc.h ****   * @retval State of bit (1 or 0).
1593:Drivers/STM32WBxx_HAL_Driver/Inc/stm32wbxx_ll_rcc.h ****   */
1594:Drivers/STM32WBxx_HAL_Driver/Inc/stm32wbxx_ll_rcc.h **** __STATIC_INLINE uint32_t LL_RCC_HSI48_IsReady(void)
1595:Drivers/STM32WBxx_HAL_Driver/Inc/stm32wbxx_ll_rcc.h **** {
1596:Drivers/STM32WBxx_HAL_Driver/Inc/stm32wbxx_ll_rcc.h ****   return ((READ_BIT(RCC->CRRCR, RCC_CRRCR_HSI48RDY) == (RCC_CRRCR_HSI48RDY)) ? 1UL : 0UL);
1597:Drivers/STM32WBxx_HAL_Driver/Inc/stm32wbxx_ll_rcc.h **** }
1598:Drivers/STM32WBxx_HAL_Driver/Inc/stm32wbxx_ll_rcc.h **** 
1599:Drivers/STM32WBxx_HAL_Driver/Inc/stm32wbxx_ll_rcc.h **** /**
1600:Drivers/STM32WBxx_HAL_Driver/Inc/stm32wbxx_ll_rcc.h ****   * @brief  Get HSI48 Calibration value
1601:Drivers/STM32WBxx_HAL_Driver/Inc/stm32wbxx_ll_rcc.h ****   * @rmtoll CRRCR          HSI48CAL      LL_RCC_HSI48_GetCalibration
1602:Drivers/STM32WBxx_HAL_Driver/Inc/stm32wbxx_ll_rcc.h ****   * @retval Between Min_Data = 0x00 and Max_Data = 0x1FF
1603:Drivers/STM32WBxx_HAL_Driver/Inc/stm32wbxx_ll_rcc.h ****   */
1604:Drivers/STM32WBxx_HAL_Driver/Inc/stm32wbxx_ll_rcc.h **** __STATIC_INLINE uint32_t LL_RCC_HSI48_GetCalibration(void)
1605:Drivers/STM32WBxx_HAL_Driver/Inc/stm32wbxx_ll_rcc.h **** {
1606:Drivers/STM32WBxx_HAL_Driver/Inc/stm32wbxx_ll_rcc.h ****   return (uint32_t)(READ_BIT(RCC->CRRCR, RCC_CRRCR_HSI48CAL) >> RCC_CRRCR_HSI48CAL_Pos);
1607:Drivers/STM32WBxx_HAL_Driver/Inc/stm32wbxx_ll_rcc.h **** }
1608:Drivers/STM32WBxx_HAL_Driver/Inc/stm32wbxx_ll_rcc.h **** 
1609:Drivers/STM32WBxx_HAL_Driver/Inc/stm32wbxx_ll_rcc.h **** /**
1610:Drivers/STM32WBxx_HAL_Driver/Inc/stm32wbxx_ll_rcc.h ****   * @}
1611:Drivers/STM32WBxx_HAL_Driver/Inc/stm32wbxx_ll_rcc.h ****   */
1612:Drivers/STM32WBxx_HAL_Driver/Inc/stm32wbxx_ll_rcc.h **** #endif /* RCC_HSI48_SUPPORT */
1613:Drivers/STM32WBxx_HAL_Driver/Inc/stm32wbxx_ll_rcc.h **** 
1614:Drivers/STM32WBxx_HAL_Driver/Inc/stm32wbxx_ll_rcc.h **** /** @defgroup RCC_LL_EF_LSE LSE
1615:Drivers/STM32WBxx_HAL_Driver/Inc/stm32wbxx_ll_rcc.h ****   * @{
1616:Drivers/STM32WBxx_HAL_Driver/Inc/stm32wbxx_ll_rcc.h ****   */
1617:Drivers/STM32WBxx_HAL_Driver/Inc/stm32wbxx_ll_rcc.h **** 
1618:Drivers/STM32WBxx_HAL_Driver/Inc/stm32wbxx_ll_rcc.h **** /**
1619:Drivers/STM32WBxx_HAL_Driver/Inc/stm32wbxx_ll_rcc.h ****   * @brief  Enable  Low Speed External (LSE) crystal.
1620:Drivers/STM32WBxx_HAL_Driver/Inc/stm32wbxx_ll_rcc.h ****   * @rmtoll BDCR         LSEON         LL_RCC_LSE_Enable
1621:Drivers/STM32WBxx_HAL_Driver/Inc/stm32wbxx_ll_rcc.h ****   * @retval None
1622:Drivers/STM32WBxx_HAL_Driver/Inc/stm32wbxx_ll_rcc.h ****   */
1623:Drivers/STM32WBxx_HAL_Driver/Inc/stm32wbxx_ll_rcc.h **** __STATIC_INLINE void LL_RCC_LSE_Enable(void)
1624:Drivers/STM32WBxx_HAL_Driver/Inc/stm32wbxx_ll_rcc.h **** {
1625:Drivers/STM32WBxx_HAL_Driver/Inc/stm32wbxx_ll_rcc.h ****   SET_BIT(RCC->BDCR, RCC_BDCR_LSEON);
1626:Drivers/STM32WBxx_HAL_Driver/Inc/stm32wbxx_ll_rcc.h **** }
1627:Drivers/STM32WBxx_HAL_Driver/Inc/stm32wbxx_ll_rcc.h **** 
1628:Drivers/STM32WBxx_HAL_Driver/Inc/stm32wbxx_ll_rcc.h **** /**
1629:Drivers/STM32WBxx_HAL_Driver/Inc/stm32wbxx_ll_rcc.h ****   * @brief  Disable  Low Speed External (LSE) crystal.
1630:Drivers/STM32WBxx_HAL_Driver/Inc/stm32wbxx_ll_rcc.h ****   * @rmtoll BDCR         LSEON         LL_RCC_LSE_Disable
1631:Drivers/STM32WBxx_HAL_Driver/Inc/stm32wbxx_ll_rcc.h ****   * @retval None
1632:Drivers/STM32WBxx_HAL_Driver/Inc/stm32wbxx_ll_rcc.h ****   */
1633:Drivers/STM32WBxx_HAL_Driver/Inc/stm32wbxx_ll_rcc.h **** __STATIC_INLINE void LL_RCC_LSE_Disable(void)
1634:Drivers/STM32WBxx_HAL_Driver/Inc/stm32wbxx_ll_rcc.h **** {
1635:Drivers/STM32WBxx_HAL_Driver/Inc/stm32wbxx_ll_rcc.h ****   CLEAR_BIT(RCC->BDCR, RCC_BDCR_LSEON);
1636:Drivers/STM32WBxx_HAL_Driver/Inc/stm32wbxx_ll_rcc.h **** }
1637:Drivers/STM32WBxx_HAL_Driver/Inc/stm32wbxx_ll_rcc.h **** 
1638:Drivers/STM32WBxx_HAL_Driver/Inc/stm32wbxx_ll_rcc.h **** /**
1639:Drivers/STM32WBxx_HAL_Driver/Inc/stm32wbxx_ll_rcc.h ****   * @brief  Check if Low Speed External (LSE) crystal has been enabled or not
ARM GAS  C:\Users\Joshua\AppData\Local\Temp\cchJYxqO.s 			page 64


1640:Drivers/STM32WBxx_HAL_Driver/Inc/stm32wbxx_ll_rcc.h ****   * @rmtoll BDCR         LSEON         LL_RCC_LSE_IsEnabled
1641:Drivers/STM32WBxx_HAL_Driver/Inc/stm32wbxx_ll_rcc.h ****   * @retval State of bit (1 or 0).
1642:Drivers/STM32WBxx_HAL_Driver/Inc/stm32wbxx_ll_rcc.h ****   */
1643:Drivers/STM32WBxx_HAL_Driver/Inc/stm32wbxx_ll_rcc.h **** __STATIC_INLINE uint32_t LL_RCC_LSE_IsEnabled(void)
1644:Drivers/STM32WBxx_HAL_Driver/Inc/stm32wbxx_ll_rcc.h **** {
1645:Drivers/STM32WBxx_HAL_Driver/Inc/stm32wbxx_ll_rcc.h ****   return ((READ_BIT(RCC->BDCR, RCC_BDCR_LSEON) == (RCC_BDCR_LSEON)) ? 1UL : 0UL);
1646:Drivers/STM32WBxx_HAL_Driver/Inc/stm32wbxx_ll_rcc.h **** }
1647:Drivers/STM32WBxx_HAL_Driver/Inc/stm32wbxx_ll_rcc.h **** 
1648:Drivers/STM32WBxx_HAL_Driver/Inc/stm32wbxx_ll_rcc.h **** /**
1649:Drivers/STM32WBxx_HAL_Driver/Inc/stm32wbxx_ll_rcc.h ****   * @brief  Enable external clock source (LSE bypass).
1650:Drivers/STM32WBxx_HAL_Driver/Inc/stm32wbxx_ll_rcc.h ****   * @rmtoll BDCR         LSEBYP        LL_RCC_LSE_EnableBypass
1651:Drivers/STM32WBxx_HAL_Driver/Inc/stm32wbxx_ll_rcc.h ****   * @retval None
1652:Drivers/STM32WBxx_HAL_Driver/Inc/stm32wbxx_ll_rcc.h ****   */
1653:Drivers/STM32WBxx_HAL_Driver/Inc/stm32wbxx_ll_rcc.h **** __STATIC_INLINE void LL_RCC_LSE_EnableBypass(void)
1654:Drivers/STM32WBxx_HAL_Driver/Inc/stm32wbxx_ll_rcc.h **** {
1655:Drivers/STM32WBxx_HAL_Driver/Inc/stm32wbxx_ll_rcc.h ****   SET_BIT(RCC->BDCR, RCC_BDCR_LSEBYP);
1656:Drivers/STM32WBxx_HAL_Driver/Inc/stm32wbxx_ll_rcc.h **** }
1657:Drivers/STM32WBxx_HAL_Driver/Inc/stm32wbxx_ll_rcc.h **** 
1658:Drivers/STM32WBxx_HAL_Driver/Inc/stm32wbxx_ll_rcc.h **** /**
1659:Drivers/STM32WBxx_HAL_Driver/Inc/stm32wbxx_ll_rcc.h ****   * @brief  Disable external clock source (LSE bypass).
1660:Drivers/STM32WBxx_HAL_Driver/Inc/stm32wbxx_ll_rcc.h ****   * @rmtoll BDCR         LSEBYP        LL_RCC_LSE_DisableBypass
1661:Drivers/STM32WBxx_HAL_Driver/Inc/stm32wbxx_ll_rcc.h ****   * @retval None
1662:Drivers/STM32WBxx_HAL_Driver/Inc/stm32wbxx_ll_rcc.h ****   */
1663:Drivers/STM32WBxx_HAL_Driver/Inc/stm32wbxx_ll_rcc.h **** __STATIC_INLINE void LL_RCC_LSE_DisableBypass(void)
1664:Drivers/STM32WBxx_HAL_Driver/Inc/stm32wbxx_ll_rcc.h **** {
1665:Drivers/STM32WBxx_HAL_Driver/Inc/stm32wbxx_ll_rcc.h ****   CLEAR_BIT(RCC->BDCR, RCC_BDCR_LSEBYP);
1666:Drivers/STM32WBxx_HAL_Driver/Inc/stm32wbxx_ll_rcc.h **** }
1667:Drivers/STM32WBxx_HAL_Driver/Inc/stm32wbxx_ll_rcc.h **** 
1668:Drivers/STM32WBxx_HAL_Driver/Inc/stm32wbxx_ll_rcc.h **** /**
1669:Drivers/STM32WBxx_HAL_Driver/Inc/stm32wbxx_ll_rcc.h ****   * @brief  Set LSE oscillator drive capability
1670:Drivers/STM32WBxx_HAL_Driver/Inc/stm32wbxx_ll_rcc.h ****   * @note The oscillator is in Xtal mode when it is not in bypass mode.
1671:Drivers/STM32WBxx_HAL_Driver/Inc/stm32wbxx_ll_rcc.h ****   * @rmtoll BDCR         LSEDRV        LL_RCC_LSE_SetDriveCapability
1672:Drivers/STM32WBxx_HAL_Driver/Inc/stm32wbxx_ll_rcc.h ****   * @param  LSEDrive This parameter can be one of the following values:
1673:Drivers/STM32WBxx_HAL_Driver/Inc/stm32wbxx_ll_rcc.h ****   *         @arg @ref LL_RCC_LSEDRIVE_LOW
1674:Drivers/STM32WBxx_HAL_Driver/Inc/stm32wbxx_ll_rcc.h ****   *         @arg @ref LL_RCC_LSEDRIVE_MEDIUMLOW
1675:Drivers/STM32WBxx_HAL_Driver/Inc/stm32wbxx_ll_rcc.h ****   *         @arg @ref LL_RCC_LSEDRIVE_MEDIUMHIGH
1676:Drivers/STM32WBxx_HAL_Driver/Inc/stm32wbxx_ll_rcc.h ****   *         @arg @ref LL_RCC_LSEDRIVE_HIGH
1677:Drivers/STM32WBxx_HAL_Driver/Inc/stm32wbxx_ll_rcc.h ****   * @retval None
1678:Drivers/STM32WBxx_HAL_Driver/Inc/stm32wbxx_ll_rcc.h ****   */
1679:Drivers/STM32WBxx_HAL_Driver/Inc/stm32wbxx_ll_rcc.h **** __STATIC_INLINE void LL_RCC_LSE_SetDriveCapability(uint32_t LSEDrive)
 1076              		.loc 3 1679 22 view .LVU269
 1077              	.LBB10:
1680:Drivers/STM32WBxx_HAL_Driver/Inc/stm32wbxx_ll_rcc.h **** {
1681:Drivers/STM32WBxx_HAL_Driver/Inc/stm32wbxx_ll_rcc.h ****   MODIFY_REG(RCC->BDCR, RCC_BDCR_LSEDRV, LSEDrive);
 1078              		.loc 3 1681 3 view .LVU270
 1079 003a D5F89030 		ldr	r3, [r5, #144]
 1080 003e 23F01803 		bic	r3, r3, #24
 1081 0042 C5F89030 		str	r3, [r5, #144]
 1082              	.LVL84:
 1083              		.loc 3 1681 3 is_stmt 0 view .LVU271
 1084              	.LBE10:
 1085              	.LBE9:
 294:Core/Src/main.c **** 
 1086              		.loc 1 294 3 is_stmt 1 view .LVU272
 1087              	.LBB11:
 294:Core/Src/main.c **** 
 1088              		.loc 1 294 3 view .LVU273
ARM GAS  C:\Users\Joshua\AppData\Local\Temp\cchJYxqO.s 			page 65


 294:Core/Src/main.c **** 
 1089              		.loc 1 294 3 view .LVU274
 1090 0046 1C4A     		ldr	r2, .L84
 1091 0048 1368     		ldr	r3, [r2]
 1092 004a 23F4C063 		bic	r3, r3, #1536
 1093 004e 43F40073 		orr	r3, r3, #512
 1094 0052 1360     		str	r3, [r2]
 294:Core/Src/main.c **** 
 1095              		.loc 1 294 3 view .LVU275
 1096 0054 1368     		ldr	r3, [r2]
 1097 0056 03F4C063 		and	r3, r3, #1536
 1098 005a 0093     		str	r3, [sp]
 294:Core/Src/main.c **** 
 1099              		.loc 1 294 3 view .LVU276
 1100 005c 009B     		ldr	r3, [sp]
 1101              	.LBE11:
 294:Core/Src/main.c **** 
 1102              		.loc 1 294 3 view .LVU277
 299:Core/Src/main.c ****                               |RCC_OSCILLATORTYPE_LSE|RCC_OSCILLATORTYPE_MSI;
 1103              		.loc 1 299 3 view .LVU278
 299:Core/Src/main.c ****                               |RCC_OSCILLATORTYPE_LSE|RCC_OSCILLATORTYPE_MSI;
 1104              		.loc 1 299 36 is_stmt 0 view .LVU279
 1105 005e 2723     		movs	r3, #39
 1106 0060 0893     		str	r3, [sp, #32]
 301:Core/Src/main.c ****   RCC_OscInitStruct.LSEState = RCC_LSE_ON;
 1107              		.loc 1 301 3 is_stmt 1 view .LVU280
 301:Core/Src/main.c ****   RCC_OscInitStruct.LSEState = RCC_LSE_ON;
 1108              		.loc 1 301 30 is_stmt 0 view .LVU281
 1109 0062 4FF48033 		mov	r3, #65536
 1110 0066 0993     		str	r3, [sp, #36]
 302:Core/Src/main.c ****   RCC_OscInitStruct.HSIState = RCC_HSI_ON;
 1111              		.loc 1 302 3 is_stmt 1 view .LVU282
 302:Core/Src/main.c ****   RCC_OscInitStruct.HSIState = RCC_HSI_ON;
 1112              		.loc 1 302 30 is_stmt 0 view .LVU283
 1113 0068 0123     		movs	r3, #1
 1114 006a 0A93     		str	r3, [sp, #40]
 303:Core/Src/main.c ****   RCC_OscInitStruct.MSIState = RCC_MSI_ON;
 1115              		.loc 1 303 3 is_stmt 1 view .LVU284
 303:Core/Src/main.c ****   RCC_OscInitStruct.MSIState = RCC_MSI_ON;
 1116              		.loc 1 303 30 is_stmt 0 view .LVU285
 1117 006c 4FF48072 		mov	r2, #256
 1118 0070 0B92     		str	r2, [sp, #44]
 304:Core/Src/main.c ****   RCC_OscInitStruct.HSICalibrationValue = RCC_HSICALIBRATION_DEFAULT;
 1119              		.loc 1 304 3 is_stmt 1 view .LVU286
 304:Core/Src/main.c ****   RCC_OscInitStruct.HSICalibrationValue = RCC_HSICALIBRATION_DEFAULT;
 1120              		.loc 1 304 30 is_stmt 0 view .LVU287
 1121 0072 0F93     		str	r3, [sp, #60]
 305:Core/Src/main.c ****   RCC_OscInitStruct.MSICalibrationValue = RCC_MSICALIBRATION_DEFAULT;
 1122              		.loc 1 305 3 is_stmt 1 view .LVU288
 305:Core/Src/main.c ****   RCC_OscInitStruct.MSICalibrationValue = RCC_MSICALIBRATION_DEFAULT;
 1123              		.loc 1 305 41 is_stmt 0 view .LVU289
 1124 0074 4023     		movs	r3, #64
 1125 0076 0C93     		str	r3, [sp, #48]
 306:Core/Src/main.c ****   RCC_OscInitStruct.MSIClockRange = RCC_MSIRANGE_6;
 1126              		.loc 1 306 3 is_stmt 1 view .LVU290
 306:Core/Src/main.c ****   RCC_OscInitStruct.MSIClockRange = RCC_MSIRANGE_6;
 1127              		.loc 1 306 41 is_stmt 0 view .LVU291
ARM GAS  C:\Users\Joshua\AppData\Local\Temp\cchJYxqO.s 			page 66


 1128 0078 1094     		str	r4, [sp, #64]
 307:Core/Src/main.c ****   RCC_OscInitStruct.PLL.PLLState = RCC_PLL_NONE;
 1129              		.loc 1 307 3 is_stmt 1 view .LVU292
 307:Core/Src/main.c ****   RCC_OscInitStruct.PLL.PLLState = RCC_PLL_NONE;
 1130              		.loc 1 307 35 is_stmt 0 view .LVU293
 1131 007a 6023     		movs	r3, #96
 1132 007c 1193     		str	r3, [sp, #68]
 308:Core/Src/main.c ****   if (HAL_RCC_OscConfig(&RCC_OscInitStruct) != HAL_OK)
 1133              		.loc 1 308 3 is_stmt 1 view .LVU294
 308:Core/Src/main.c ****   if (HAL_RCC_OscConfig(&RCC_OscInitStruct) != HAL_OK)
 1134              		.loc 1 308 34 is_stmt 0 view .LVU295
 1135 007e 1394     		str	r4, [sp, #76]
 309:Core/Src/main.c ****   {
 1136              		.loc 1 309 3 is_stmt 1 view .LVU296
 309:Core/Src/main.c ****   {
 1137              		.loc 1 309 7 is_stmt 0 view .LVU297
 1138 0080 08A8     		add	r0, sp, #32
 1139 0082 FFF7FEFF 		bl	HAL_RCC_OscConfig
 1140              	.LVL85:
 309:Core/Src/main.c ****   {
 1141              		.loc 1 309 6 view .LVU298
 1142 0086 90B9     		cbnz	r0, .L82
 316:Core/Src/main.c ****                               |RCC_CLOCKTYPE_HCLK|RCC_CLOCKTYPE_SYSCLK
 1143              		.loc 1 316 3 is_stmt 1 view .LVU299
 316:Core/Src/main.c ****                               |RCC_CLOCKTYPE_HCLK|RCC_CLOCKTYPE_SYSCLK
 1144              		.loc 1 316 31 is_stmt 0 view .LVU300
 1145 0088 6F23     		movs	r3, #111
 1146 008a 0193     		str	r3, [sp, #4]
 319:Core/Src/main.c ****   RCC_ClkInitStruct.AHBCLKDivider = RCC_SYSCLK_DIV1;
 1147              		.loc 1 319 3 is_stmt 1 view .LVU301
 319:Core/Src/main.c ****   RCC_ClkInitStruct.AHBCLKDivider = RCC_SYSCLK_DIV1;
 1148              		.loc 1 319 34 is_stmt 0 view .LVU302
 1149 008c 0223     		movs	r3, #2
 1150 008e 0293     		str	r3, [sp, #8]
 320:Core/Src/main.c ****   RCC_ClkInitStruct.APB1CLKDivider = RCC_HCLK_DIV1;
 1151              		.loc 1 320 3 is_stmt 1 view .LVU303
 320:Core/Src/main.c ****   RCC_ClkInitStruct.APB1CLKDivider = RCC_HCLK_DIV1;
 1152              		.loc 1 320 35 is_stmt 0 view .LVU304
 1153 0090 0023     		movs	r3, #0
 1154 0092 0393     		str	r3, [sp, #12]
 321:Core/Src/main.c ****   RCC_ClkInitStruct.APB2CLKDivider = RCC_HCLK_DIV1;
 1155              		.loc 1 321 3 is_stmt 1 view .LVU305
 321:Core/Src/main.c ****   RCC_ClkInitStruct.APB2CLKDivider = RCC_HCLK_DIV1;
 1156              		.loc 1 321 36 is_stmt 0 view .LVU306
 1157 0094 0493     		str	r3, [sp, #16]
 322:Core/Src/main.c ****   RCC_ClkInitStruct.AHBCLK2Divider = RCC_SYSCLK_DIV1;
 1158              		.loc 1 322 3 is_stmt 1 view .LVU307
 322:Core/Src/main.c ****   RCC_ClkInitStruct.AHBCLK2Divider = RCC_SYSCLK_DIV1;
 1159              		.loc 1 322 36 is_stmt 0 view .LVU308
 1160 0096 0593     		str	r3, [sp, #20]
 323:Core/Src/main.c ****   RCC_ClkInitStruct.AHBCLK4Divider = RCC_SYSCLK_DIV1;
 1161              		.loc 1 323 3 is_stmt 1 view .LVU309
 323:Core/Src/main.c ****   RCC_ClkInitStruct.AHBCLK4Divider = RCC_SYSCLK_DIV1;
 1162              		.loc 1 323 36 is_stmt 0 view .LVU310
 1163 0098 0693     		str	r3, [sp, #24]
 324:Core/Src/main.c **** 
 1164              		.loc 1 324 3 is_stmt 1 view .LVU311
ARM GAS  C:\Users\Joshua\AppData\Local\Temp\cchJYxqO.s 			page 67


 324:Core/Src/main.c **** 
 1165              		.loc 1 324 36 is_stmt 0 view .LVU312
 1166 009a 0793     		str	r3, [sp, #28]
 326:Core/Src/main.c ****   {
 1167              		.loc 1 326 3 is_stmt 1 view .LVU313
 326:Core/Src/main.c ****   {
 1168              		.loc 1 326 7 is_stmt 0 view .LVU314
 1169 009c 0121     		movs	r1, #1
 1170 009e 01A8     		add	r0, sp, #4
 1171 00a0 FFF7FEFF 		bl	HAL_RCC_ClockConfig
 1172              	.LVL86:
 326:Core/Src/main.c ****   {
 1173              		.loc 1 326 6 view .LVU315
 1174 00a4 28B9     		cbnz	r0, .L83
 333:Core/Src/main.c **** }
 1175              		.loc 1 333 3 is_stmt 1 view .LVU316
 1176 00a6 FFF7FEFF 		bl	HAL_RCCEx_EnableMSIPLLMode
 1177              	.LVL87:
 334:Core/Src/main.c **** 
 1178              		.loc 1 334 1 is_stmt 0 view .LVU317
 1179 00aa 1BB0     		add	sp, sp, #108
 1180              		.cfi_remember_state
 1181              		.cfi_def_cfa_offset 12
 1182              		@ sp needed
 1183 00ac 30BD     		pop	{r4, r5, pc}
 1184              	.L82:
 1185              		.cfi_restore_state
 311:Core/Src/main.c ****   }
 1186              		.loc 1 311 5 is_stmt 1 view .LVU318
 1187 00ae FFF7FEFF 		bl	Error_Handler
 1188              	.LVL88:
 1189              	.L83:
 328:Core/Src/main.c ****   }
 1190              		.loc 1 328 5 view .LVU319
 1191 00b2 FFF7FEFF 		bl	Error_Handler
 1192              	.LVL89:
 1193              	.L85:
 1194 00b6 00BF     		.align	2
 1195              	.L84:
 1196 00b8 00040058 		.word	1476396032
 1197              		.cfi_endproc
 1198              	.LFE958:
 1200              		.section	.text.PeriphCommonClock_Config,"ax",%progbits
 1201              		.align	1
 1202              		.global	PeriphCommonClock_Config
 1203              		.syntax unified
 1204              		.thumb
 1205              		.thumb_func
 1207              	PeriphCommonClock_Config:
 1208              	.LFB959:
 341:Core/Src/main.c ****   RCC_PeriphCLKInitTypeDef PeriphClkInitStruct = {0};
 1209              		.loc 1 341 1 view -0
 1210              		.cfi_startproc
 1211              		@ args = 0, pretend = 0, frame = 80
 1212              		@ frame_needed = 0, uses_anonymous_args = 0
 1213 0000 00B5     		push	{lr}
 1214              		.cfi_def_cfa_offset 4
ARM GAS  C:\Users\Joshua\AppData\Local\Temp\cchJYxqO.s 			page 68


 1215              		.cfi_offset 14, -4
 1216 0002 95B0     		sub	sp, sp, #84
 1217              		.cfi_def_cfa_offset 88
 342:Core/Src/main.c **** 
 1218              		.loc 1 342 3 view .LVU321
 342:Core/Src/main.c **** 
 1219              		.loc 1 342 28 is_stmt 0 view .LVU322
 1220 0004 5022     		movs	r2, #80
 1221 0006 0021     		movs	r1, #0
 1222 0008 6846     		mov	r0, sp
 1223 000a FFF7FEFF 		bl	memset
 1224              	.LVL90:
 346:Core/Src/main.c ****   PeriphClkInitStruct.SmpsClockSelection = RCC_SMPSCLKSOURCE_HSI;
 1225              		.loc 1 346 3 is_stmt 1 view .LVU323
 346:Core/Src/main.c ****   PeriphClkInitStruct.SmpsClockSelection = RCC_SMPSCLKSOURCE_HSI;
 1226              		.loc 1 346 44 is_stmt 0 view .LVU324
 1227 000e 4FF40053 		mov	r3, #8192
 1228 0012 0093     		str	r3, [sp]
 347:Core/Src/main.c ****   PeriphClkInitStruct.SmpsDivSelection = RCC_SMPSCLKDIV_RANGE0;
 1229              		.loc 1 347 3 is_stmt 1 view .LVU325
 348:Core/Src/main.c **** 
 1230              		.loc 1 348 3 view .LVU326
 350:Core/Src/main.c ****   {
 1231              		.loc 1 350 3 view .LVU327
 350:Core/Src/main.c ****   {
 1232              		.loc 1 350 7 is_stmt 0 view .LVU328
 1233 0014 6846     		mov	r0, sp
 1234 0016 FFF7FEFF 		bl	HAL_RCCEx_PeriphCLKConfig
 1235              	.LVL91:
 350:Core/Src/main.c ****   {
 1236              		.loc 1 350 6 view .LVU329
 1237 001a 10B9     		cbnz	r0, .L89
 357:Core/Src/main.c **** 
 1238              		.loc 1 357 1 view .LVU330
 1239 001c 15B0     		add	sp, sp, #84
 1240              		.cfi_remember_state
 1241              		.cfi_def_cfa_offset 4
 1242              		@ sp needed
 1243 001e 5DF804FB 		ldr	pc, [sp], #4
 1244              	.L89:
 1245              		.cfi_restore_state
 352:Core/Src/main.c ****   }
 1246              		.loc 1 352 5 is_stmt 1 view .LVU331
 1247 0022 FFF7FEFF 		bl	Error_Handler
 1248              	.LVL92:
 1249              		.cfi_endproc
 1250              	.LFE959:
 1252              		.global	__aeabi_i2d
 1253              		.global	__aeabi_ddiv
 1254              		.global	__aeabi_d2f
 1255              		.global	__aeabi_f2d
 1256              		.global	__aeabi_dsub
 1257              		.global	__aeabi_dmul
 1258              		.global	__aeabi_dadd
 1259              		.global	__aeabi_d2uiz
 1260              		.section	.rodata.main.str1.4,"aMS",%progbits,1
 1261              		.align	2
ARM GAS  C:\Users\Joshua\AppData\Local\Temp\cchJYxqO.s 			page 69


 1262              	.LC0:
 1263 0000 25642E25 		.ascii	"%d.%d %%  %d F  \000"
 1263      64202525 
 1263      20202564 
 1263      20462020 
 1263      00
 1264              		.global	__aeabi_d2iz
 1265 0011 000000   		.align	2
 1266              	.LC1:
 1267 0014 53657420 		.ascii	"Set Temp:  F   \000"
 1267      54656D70 
 1267      3A202046 
 1267      20202000 
 1268              		.align	2
 1269              	.LC2:
 1270 0024 53657420 		.ascii	"Set Temp: %d F \000"
 1270      54656D70 
 1270      3A202564 
 1270      20462000 
 1271              		.section	.text.main,"ax",%progbits
 1272              		.align	1
 1273              		.global	main
 1274              		.syntax unified
 1275              		.thumb
 1276              		.thumb_func
 1278              	main:
 1279              	.LFB957:
 157:Core/Src/main.c ****   /* USER CODE BEGIN 1 */
 1280              		.loc 1 157 1 view -0
 1281              		.cfi_startproc
 1282              		@ Volatile: function does not return.
 1283              		@ args = 0, pretend = 0, frame = 16
 1284              		@ frame_needed = 0, uses_anonymous_args = 0
 1285 0000 00B5     		push	{lr}
 1286              		.cfi_def_cfa_offset 4
 1287              		.cfi_offset 14, -4
 1288 0002 87B0     		sub	sp, sp, #28
 1289              		.cfi_def_cfa_offset 32
 165:Core/Src/main.c **** 
 1290              		.loc 1 165 3 view .LVU333
 1291 0004 FFF7FEFF 		bl	HAL_Init
 1292              	.LVL93:
 168:Core/Src/main.c **** 
 1293              		.loc 1 168 3 view .LVU334
 173:Core/Src/main.c **** 
 1294              		.loc 1 173 3 view .LVU335
 1295 0008 FFF7FEFF 		bl	SystemClock_Config
 1296              	.LVL94:
 176:Core/Src/main.c **** 
 1297              		.loc 1 176 3 view .LVU336
 1298 000c FFF7FEFF 		bl	PeriphCommonClock_Config
 1299              	.LVL95:
 183:Core/Src/main.c ****   MX_MEMORYMAP_Init();
 1300              		.loc 1 183 3 view .LVU337
 1301 0010 FFF7FEFF 		bl	MX_GPIO_Init
 1302              	.LVL96:
 184:Core/Src/main.c ****   MX_TIM16_Init();
ARM GAS  C:\Users\Joshua\AppData\Local\Temp\cchJYxqO.s 			page 70


 1303              		.loc 1 184 3 view .LVU338
 1304 0014 FFF7FEFF 		bl	MX_MEMORYMAP_Init
 1305              	.LVL97:
 185:Core/Src/main.c ****   MX_USART1_UART_Init();
 1306              		.loc 1 185 3 view .LVU339
 1307 0018 FFF7FEFF 		bl	MX_TIM16_Init
 1308              	.LVL98:
 186:Core/Src/main.c ****   MX_USB_PCD_Init();
 1309              		.loc 1 186 3 view .LVU340
 1310 001c FFF7FEFF 		bl	MX_USART1_UART_Init
 1311              	.LVL99:
 187:Core/Src/main.c ****   MX_TIM2_Init();
 1312              		.loc 1 187 3 view .LVU341
 1313 0020 FFF7FEFF 		bl	MX_USB_PCD_Init
 1314              	.LVL100:
 188:Core/Src/main.c ****   /* USER CODE BEGIN 2 */
 1315              		.loc 1 188 3 view .LVU342
 1316 0024 FFF7FEFF 		bl	MX_TIM2_Init
 1317              	.LVL101:
 191:Core/Src/main.c ****   HAL_TIM_PWM_Start(&htim16, TIM_CHANNEL_1);
 1318              		.loc 1 191 3 view .LVU343
 1319 0028 7748     		ldr	r0, .L106+8
 1320 002a FFF7FEFF 		bl	HAL_TIM_Base_Start
 1321              	.LVL102:
 192:Core/Src/main.c ****   LCD_Init();
 1322              		.loc 1 192 3 view .LVU344
 1323 002e 0021     		movs	r1, #0
 1324 0030 7648     		ldr	r0, .L106+12
 1325 0032 FFF7FEFF 		bl	HAL_TIM_PWM_Start
 1326              	.LVL103:
 193:Core/Src/main.c ****   LCD_Cls();
 1327              		.loc 1 193 3 view .LVU345
 1328 0036 FFF7FEFF 		bl	LCD_Init
 1329              	.LVL104:
 194:Core/Src/main.c ****   HAL_GPIO_WritePin(GPIOB, GPIO_PIN_9, 0);
 1330              		.loc 1 194 3 view .LVU346
 1331 003a FFF7FEFF 		bl	LCD_Cls
 1332              	.LVL105:
 195:Core/Src/main.c ****   HAL_GPIO_WritePin(GPIOC, GPIO_PIN_5, GPIO_PIN_SET);
 1333              		.loc 1 195 3 view .LVU347
 1334 003e 0022     		movs	r2, #0
 1335 0040 4FF40071 		mov	r1, #512
 1336 0044 7248     		ldr	r0, .L106+16
 1337 0046 FFF7FEFF 		bl	HAL_GPIO_WritePin
 1338              	.LVL106:
 196:Core/Src/main.c ****   TIM16->CCR1 = 255; // Spin up fan
 1339              		.loc 1 196 3 view .LVU348
 1340 004a 0122     		movs	r2, #1
 1341 004c 2021     		movs	r1, #32
 1342 004e 7148     		ldr	r0, .L106+20
 1343 0050 FFF7FEFF 		bl	HAL_GPIO_WritePin
 1344              	.LVL107:
 197:Core/Src/main.c **** 
 1345              		.loc 1 197 3 view .LVU349
 197:Core/Src/main.c **** 
 1346              		.loc 1 197 15 is_stmt 0 view .LVU350
 1347 0054 704B     		ldr	r3, .L106+24
ARM GAS  C:\Users\Joshua\AppData\Local\Temp\cchJYxqO.s 			page 71


 1348 0056 FF22     		movs	r2, #255
 1349 0058 5A63     		str	r2, [r3, #52]
 1350 005a BFE0     		b	.L98
 1351              	.L104:
 207:Core/Src/main.c ****     {
 1352              		.loc 1 207 56 discriminator 1 view .LVU351
 1353 005c FFF7FEFF 		bl	DHT11_SendStartSignal
 1354              	.LVL108:
 207:Core/Src/main.c ****     {
 1355              		.loc 1 207 53 discriminator 1 view .LVU352
 1356 0060 0028     		cmp	r0, #0
 1357 0062 00F0C780 		beq	.L91
 1358              	.LBB12:
 209:Core/Src/main.c ****       LCD_GotoXY(0, 0);
 1359              		.loc 1 209 7 is_stmt 1 view .LVU353
 209:Core/Src/main.c ****       LCD_GotoXY(0, 0);
 1360              		.loc 1 209 12 is_stmt 0 view .LVU354
 1361 0066 0020     		movs	r0, #0
 1362 0068 0290     		str	r0, [sp, #8]
 1363 006a 0390     		str	r0, [sp, #12]
 1364 006c 0490     		str	r0, [sp, #16]
 1365 006e 0590     		str	r0, [sp, #20]
 210:Core/Src/main.c **** 
 1366              		.loc 1 210 7 is_stmt 1 view .LVU355
 1367 0070 0146     		mov	r1, r0
 1368 0072 FFF7FEFF 		bl	LCD_GotoXY
 1369              	.LVL109:
 212:Core/Src/main.c ****       humDec = DHT11_ReadByte(); // Relative humidity decimal
 1370              		.loc 1 212 7 view .LVU356
 212:Core/Src/main.c ****       humDec = DHT11_ReadByte(); // Relative humidity decimal
 1371              		.loc 1 212 16 is_stmt 0 view .LVU357
 1372 0076 FFF7FEFF 		bl	DHT11_ReadByte
 1373              	.LVL110:
 212:Core/Src/main.c ****       humDec = DHT11_ReadByte(); // Relative humidity decimal
 1374              		.loc 1 212 14 view .LVU358
 1375 007a 684B     		ldr	r3, .L106+28
 1376 007c 1870     		strb	r0, [r3]
 213:Core/Src/main.c ****       tempCInt = DHT11_ReadByte(); // Celsius integral
 1377              		.loc 1 213 7 is_stmt 1 view .LVU359
 213:Core/Src/main.c ****       tempCInt = DHT11_ReadByte(); // Celsius integral
 1378              		.loc 1 213 16 is_stmt 0 view .LVU360
 1379 007e FFF7FEFF 		bl	DHT11_ReadByte
 1380              	.LVL111:
 213:Core/Src/main.c ****       tempCInt = DHT11_ReadByte(); // Celsius integral
 1381              		.loc 1 213 14 view .LVU361
 1382 0082 674B     		ldr	r3, .L106+32
 1383 0084 1870     		strb	r0, [r3]
 214:Core/Src/main.c ****       tempCDec = DHT11_ReadByte(); // Celsius decimal
 1384              		.loc 1 214 7 is_stmt 1 view .LVU362
 214:Core/Src/main.c ****       tempCDec = DHT11_ReadByte(); // Celsius decimal
 1385              		.loc 1 214 18 is_stmt 0 view .LVU363
 1386 0086 FFF7FEFF 		bl	DHT11_ReadByte
 1387              	.LVL112:
 214:Core/Src/main.c ****       tempCDec = DHT11_ReadByte(); // Celsius decimal
 1388              		.loc 1 214 16 view .LVU364
 1389 008a 664C     		ldr	r4, .L106+36
 1390 008c 2070     		strb	r0, [r4]
ARM GAS  C:\Users\Joshua\AppData\Local\Temp\cchJYxqO.s 			page 72


 215:Core/Src/main.c ****       tempF = ((float)tempCInt + (float)(tempCDec/10.0)) * 9/5 + 32;
 1391              		.loc 1 215 7 is_stmt 1 view .LVU365
 215:Core/Src/main.c ****       tempF = ((float)tempCInt + (float)(tempCDec/10.0)) * 9/5 + 32;
 1392              		.loc 1 215 18 is_stmt 0 view .LVU366
 1393 008e FFF7FEFF 		bl	DHT11_ReadByte
 1394              	.LVL113:
 215:Core/Src/main.c ****       tempF = ((float)tempCInt + (float)(tempCDec/10.0)) * 9/5 + 32;
 1395              		.loc 1 215 16 view .LVU367
 1396 0092 654B     		ldr	r3, .L106+40
 1397 0094 1870     		strb	r0, [r3]
 216:Core/Src/main.c **** 
 1398              		.loc 1 216 7 is_stmt 1 view .LVU368
 216:Core/Src/main.c **** 
 1399              		.loc 1 216 16 is_stmt 0 view .LVU369
 1400 0096 2378     		ldrb	r3, [r4]	@ zero_extendqisi2
 1401 0098 08EE103A 		vmov	s16, r3	@ int
 1402 009c B8EE488A 		vcvt.f32.u32	s16, s16
 216:Core/Src/main.c **** 
 1403              		.loc 1 216 50 view .LVU370
 1404 00a0 FFF7FEFF 		bl	__aeabi_i2d
 1405              	.LVL114:
 1406 00a4 0022     		movs	r2, #0
 1407 00a6 614B     		ldr	r3, .L106+44
 1408 00a8 FFF7FEFF 		bl	__aeabi_ddiv
 1409              	.LVL115:
 216:Core/Src/main.c **** 
 1410              		.loc 1 216 34 view .LVU371
 1411 00ac FFF7FEFF 		bl	__aeabi_d2f
 1412              	.LVL116:
 1413 00b0 07EE900A 		vmov	s15, r0
 216:Core/Src/main.c **** 
 1414              		.loc 1 216 32 view .LVU372
 1415 00b4 38EE278A 		vadd.f32	s16, s16, s15
 216:Core/Src/main.c **** 
 1416              		.loc 1 216 58 view .LVU373
 1417 00b8 F2EE027A 		vmov.f32	s15, #9.0e+0
 1418 00bc 28EE278A 		vmul.f32	s16, s16, s15
 216:Core/Src/main.c **** 
 1419              		.loc 1 216 61 view .LVU374
 1420 00c0 B1EE047A 		vmov.f32	s14, #5.0e+0
 1421 00c4 C8EE077A 		vdiv.f32	s15, s16, s14
 216:Core/Src/main.c **** 
 1422              		.loc 1 216 64 view .LVU375
 1423 00c8 9FED597A 		vldr.32	s14, .L106+48
 1424 00cc 77EE877A 		vadd.f32	s15, s15, s14
 216:Core/Src/main.c **** 
 1425              		.loc 1 216 13 view .LVU376
 1426 00d0 584B     		ldr	r3, .L106+52
 1427 00d2 C3ED007A 		vstr.32	s15, [r3]
 219:Core/Src/main.c ****       {
 1428              		.loc 1 219 7 is_stmt 1 view .LVU377
 219:Core/Src/main.c ****       {
 1429              		.loc 1 219 11 is_stmt 0 view .LVU378
 1430 00d6 584B     		ldr	r3, .L106+56
 1431 00d8 1B78     		ldrb	r3, [r3]	@ zero_extendqisi2
 219:Core/Src/main.c ****       {
 1432              		.loc 1 219 10 view .LVU379
ARM GAS  C:\Users\Joshua\AppData\Local\Temp\cchJYxqO.s 			page 73


 1433 00da 002B     		cmp	r3, #0
 1434 00dc 33D1     		bne	.L92
 221:Core/Src/main.c ****         {
 1435              		.loc 1 221 9 is_stmt 1 view .LVU380
 221:Core/Src/main.c ****         {
 1436              		.loc 1 221 19 is_stmt 0 view .LVU381
 1437 00de 574B     		ldr	r3, .L106+60
 1438 00e0 1B78     		ldrb	r3, [r3]	@ zero_extendqisi2
 1439 00e2 07EE103A 		vmov	s14, r3	@ int
 1440 00e6 B8EEC77A 		vcvt.f32.s32	s14, s14
 221:Core/Src/main.c ****         {
 1441              		.loc 1 221 12 view .LVU382
 1442 00ea F4EEC77A 		vcmpe.f32	s15, s14
 1443 00ee F1EE10FA 		vmrs	APSR_nzcv, FPSCR
 1444 00f2 5DDD     		ble	.L101
 1445              	.LBB13:
 223:Core/Src/main.c ****           {
 1446              		.loc 1 223 11 is_stmt 1 view .LVU383
 223:Core/Src/main.c ****           {
 1447              		.loc 1 223 15 is_stmt 0 view .LVU384
 1448 00f4 524B     		ldr	r3, .L106+64
 1449 00f6 1B78     		ldrb	r3, [r3]	@ zero_extendqisi2
 223:Core/Src/main.c ****           {
 1450              		.loc 1 223 14 view .LVU385
 1451 00f8 002B     		cmp	r3, #0
 1452 00fa 52D0     		beq	.L103
 1453              	.L95:
 230:Core/Src/main.c ****         }
 1454              		.loc 1 230 11 is_stmt 1 view .LVU386
 230:Core/Src/main.c ****         }
 1455              		.loc 1 230 26 is_stmt 0 view .LVU387
 1456 00fc 4D4B     		ldr	r3, .L106+52
 1457 00fe 1868     		ldr	r0, [r3]	@ float
 1458 0100 FFF7FEFF 		bl	__aeabi_f2d
 1459              	.LVL117:
 1460 0104 41EC100B 		vmov	d0, r0, r1
 1461 0108 FFF7FEFF 		bl	round
 1462              	.LVL118:
 1463 010c 55EC104B 		vmov	r4, r5, d0
 230:Core/Src/main.c ****         }
 1464              		.loc 1 230 39 view .LVU388
 1465 0110 4A4B     		ldr	r3, .L106+60
 1466 0112 1878     		ldrb	r0, [r3]	@ zero_extendqisi2
 1467 0114 FFF7FEFF 		bl	__aeabi_i2d
 1468              	.LVL119:
 1469 0118 0246     		mov	r2, r0
 1470 011a 0B46     		mov	r3, r1
 1471 011c 2046     		mov	r0, r4
 1472 011e 2946     		mov	r1, r5
 1473 0120 FFF7FEFF 		bl	__aeabi_dsub
 1474              	.LVL120:
 230:Core/Src/main.c ****         }
 1475              		.loc 1 230 50 view .LVU389
 1476 0124 0022     		movs	r2, #0
 1477 0126 474B     		ldr	r3, .L106+68
 1478 0128 FFF7FEFF 		bl	__aeabi_ddiv
 1479              	.LVL121:
ARM GAS  C:\Users\Joshua\AppData\Local\Temp\cchJYxqO.s 			page 74


 230:Core/Src/main.c ****         }
 1480              		.loc 1 230 63 view .LVU390
 1481 012c 0022     		movs	r2, #0
 1482 012e 464B     		ldr	r3, .L106+72
 1483 0130 FFF7FEFF 		bl	__aeabi_dmul
 1484              	.LVL122:
 230:Core/Src/main.c ****         }
 1485              		.loc 1 230 68 view .LVU391
 1486 0134 32A3     		adr	r3, .L106
 1487 0136 D3E90023 		ldrd	r2, [r3]
 1488 013a FFF7FEFF 		bl	__aeabi_dadd
 1489              	.LVL123:
 230:Core/Src/main.c ****         }
 1490              		.loc 1 230 23 view .LVU392
 1491 013e FFF7FEFF 		bl	__aeabi_d2uiz
 1492              	.LVL124:
 1493 0142 354B     		ldr	r3, .L106+24
 1494 0144 5863     		str	r0, [r3, #52]
 1495              	.L92:
 1496              	.LBE13:
 240:Core/Src/main.c ****       LCD_Print(buffer);
 1497              		.loc 1 240 7 is_stmt 1 view .LVU393
 240:Core/Src/main.c ****       LCD_Print(buffer);
 1498              		.loc 1 240 63 is_stmt 0 view .LVU394
 1499 0146 3B4B     		ldr	r3, .L106+52
 1500 0148 1868     		ldr	r0, [r3]	@ float
 1501 014a FFF7FEFF 		bl	__aeabi_f2d
 1502              	.LVL125:
 1503 014e 41EC100B 		vmov	d0, r0, r1
 1504 0152 FFF7FEFF 		bl	round
 1505              	.LVL126:
 1506 0156 51EC100B 		vmov	r0, r1, d0
 240:Core/Src/main.c ****       LCD_Print(buffer);
 1507              		.loc 1 240 7 view .LVU395
 1508 015a 314B     		ldr	r3, .L106+32
 1509 015c 1D78     		ldrb	r5, [r3]	@ zero_extendqisi2
 1510 015e 2F4B     		ldr	r3, .L106+28
 1511 0160 1C78     		ldrb	r4, [r3]	@ zero_extendqisi2
 1512 0162 FFF7FEFF 		bl	__aeabi_d2iz
 1513              	.LVL127:
 1514 0166 0090     		str	r0, [sp]
 1515 0168 2B46     		mov	r3, r5
 1516 016a 2246     		mov	r2, r4
 1517 016c 3749     		ldr	r1, .L106+76
 1518 016e 02A8     		add	r0, sp, #8
 1519 0170 FFF7FEFF 		bl	sprintf
 1520              	.LVL128:
 241:Core/Src/main.c **** 
 1521              		.loc 1 241 7 is_stmt 1 view .LVU396
 1522 0174 02A8     		add	r0, sp, #8
 1523 0176 FFF7FEFF 		bl	LCD_Print
 1524              	.LVL129:
 244:Core/Src/main.c ****       if (setTemp == 0)
 1525              		.loc 1 244 7 view .LVU397
 1526 017a 0121     		movs	r1, #1
 1527 017c 0020     		movs	r0, #0
 1528 017e FFF7FEFF 		bl	LCD_GotoXY
ARM GAS  C:\Users\Joshua\AppData\Local\Temp\cchJYxqO.s 			page 75


 1529              	.LVL130:
 245:Core/Src/main.c ****       {
 1530              		.loc 1 245 7 view .LVU398
 245:Core/Src/main.c ****       {
 1531              		.loc 1 245 19 is_stmt 0 view .LVU399
 1532 0182 2E4B     		ldr	r3, .L106+60
 1533 0184 1A78     		ldrb	r2, [r3]	@ zero_extendqisi2
 245:Core/Src/main.c ****       {
 1534              		.loc 1 245 10 view .LVU400
 1535 0186 CAB9     		cbnz	r2, .L96
 247:Core/Src/main.c ****       }
 1536              		.loc 1 247 9 is_stmt 1 view .LVU401
 1537 0188 314B     		ldr	r3, .L106+80
 1538 018a 0FCB     		ldm	r3, {r0, r1, r2, r3}
 1539 018c 06AC     		add	r4, sp, #24
 1540 018e 04E90F00 		stmdb	r4, {r0, r1, r2, r3}
 1541              	.L97:
 253:Core/Src/main.c **** 
 1542              		.loc 1 253 7 view .LVU402
 1543 0192 02A8     		add	r0, sp, #8
 1544 0194 FFF7FEFF 		bl	LCD_Print
 1545              	.LVL131:
 255:Core/Src/main.c ****     }
 1546              		.loc 1 255 7 view .LVU403
 255:Core/Src/main.c ****     }
 1547              		.loc 1 255 26 is_stmt 0 view .LVU404
 1548 0198 FFF7FEFF 		bl	HAL_GetTick
 1549              	.LVL132:
 255:Core/Src/main.c ****     }
 1550              		.loc 1 255 24 view .LVU405
 1551 019c 2D4B     		ldr	r3, .L106+84
 1552 019e 1860     		str	r0, [r3]
 1553 01a0 28E0     		b	.L91
 1554              	.L103:
 1555              	.LBB14:
 226:Core/Src/main.c ****             HAL_Delay(100);
 1556              		.loc 1 226 13 is_stmt 1 view .LVU406
 226:Core/Src/main.c ****             HAL_Delay(100);
 1557              		.loc 1 226 25 is_stmt 0 view .LVU407
 1558 01a2 1D4B     		ldr	r3, .L106+24
 1559 01a4 FF22     		movs	r2, #255
 1560 01a6 5A63     		str	r2, [r3, #52]
 227:Core/Src/main.c ****           }
 1561              		.loc 1 227 13 is_stmt 1 view .LVU408
 1562 01a8 6420     		movs	r0, #100
 1563 01aa FFF7FEFF 		bl	HAL_Delay
 1564              	.LVL133:
 1565 01ae A5E7     		b	.L95
 1566              	.L101:
 1567              	.LBE14:
 234:Core/Src/main.c ****           TIM16->CCR1 = 0;
 1568              		.loc 1 234 11 view .LVU409
 234:Core/Src/main.c ****           TIM16->CCR1 = 0;
 1569              		.loc 1 234 23 is_stmt 0 view .LVU410
 1570 01b0 0023     		movs	r3, #0
 1571 01b2 234A     		ldr	r2, .L106+64
 1572 01b4 1370     		strb	r3, [r2]
ARM GAS  C:\Users\Joshua\AppData\Local\Temp\cchJYxqO.s 			page 76


 235:Core/Src/main.c ****         }
 1573              		.loc 1 235 11 is_stmt 1 view .LVU411
 235:Core/Src/main.c ****         }
 1574              		.loc 1 235 23 is_stmt 0 view .LVU412
 1575 01b6 184A     		ldr	r2, .L106+24
 1576 01b8 5363     		str	r3, [r2, #52]
 1577 01ba C4E7     		b	.L92
 1578              	.L96:
 251:Core/Src/main.c ****       }
 1579              		.loc 1 251 9 is_stmt 1 view .LVU413
 1580 01bc 2649     		ldr	r1, .L106+88
 1581 01be 02A8     		add	r0, sp, #8
 1582 01c0 FFF7FEFF 		bl	sprintf
 1583              	.LVL134:
 1584 01c4 E5E7     		b	.L97
 1585              	.L105:
 1586              	.LBE12:
 1587              	.LBB15:
 260:Core/Src/main.c ****       sprintf(buffer, "Set Temp: %d F ", setTemp);
 1588              		.loc 1 260 7 view .LVU414
 260:Core/Src/main.c ****       sprintf(buffer, "Set Temp: %d F ", setTemp);
 1589              		.loc 1 260 12 is_stmt 0 view .LVU415
 1590 01c6 0023     		movs	r3, #0
 1591 01c8 0293     		str	r3, [sp, #8]
 1592 01ca 0393     		str	r3, [sp, #12]
 1593 01cc 0493     		str	r3, [sp, #16]
 1594 01ce 0593     		str	r3, [sp, #20]
 261:Core/Src/main.c ****     }
 1595              		.loc 1 261 7 is_stmt 1 view .LVU416
 1596 01d0 1A4B     		ldr	r3, .L106+60
 1597 01d2 1A78     		ldrb	r2, [r3]	@ zero_extendqisi2
 1598 01d4 2049     		ldr	r1, .L106+88
 1599 01d6 02A8     		add	r0, sp, #8
 1600 01d8 FFF7FEFF 		bl	sprintf
 1601              	.LVL135:
 1602              	.L98:
 1603              	.LBE15:
 203:Core/Src/main.c ****   {
 1604              		.loc 1 203 3 view .LVU417
 205:Core/Src/main.c ****     // Only attempt to read 2 seconds after last successful read
 1605              		.loc 1 205 5 view .LVU418
 205:Core/Src/main.c ****     // Only attempt to read 2 seconds after last successful read
 1606              		.loc 1 205 23 is_stmt 0 view .LVU419
 1607 01dc FFF7FEFF 		bl	HAL_GetTick
 1608              	.LVL136:
 205:Core/Src/main.c ****     // Only attempt to read 2 seconds after last successful read
 1609              		.loc 1 205 21 view .LVU420
 1610 01e0 1E4B     		ldr	r3, .L106+92
 1611 01e2 1860     		str	r0, [r3]
 207:Core/Src/main.c ****     {
 1612              		.loc 1 207 5 is_stmt 1 view .LVU421
 207:Core/Src/main.c ****     {
 1613              		.loc 1 207 26 is_stmt 0 view .LVU422
 1614 01e4 1B4B     		ldr	r3, .L106+84
 1615 01e6 1B68     		ldr	r3, [r3]
 1616 01e8 C01A     		subs	r0, r0, r3
 207:Core/Src/main.c ****     {
ARM GAS  C:\Users\Joshua\AppData\Local\Temp\cchJYxqO.s 			page 77


 1617              		.loc 1 207 8 view .LVU423
 1618 01ea 40F6C413 		movw	r3, #2500
 1619 01ee 9842     		cmp	r0, r3
 1620 01f0 3FF634AF 		bhi	.L104
 1621              	.L91:
 258:Core/Src/main.c ****     {
 1622              		.loc 1 258 5 is_stmt 1 view .LVU424
 258:Core/Src/main.c ****     {
 1623              		.loc 1 258 9 is_stmt 0 view .LVU425
 1624 01f4 104B     		ldr	r3, .L106+56
 1625 01f6 1B78     		ldrb	r3, [r3]	@ zero_extendqisi2
 258:Core/Src/main.c ****     {
 1626              		.loc 1 258 8 view .LVU426
 1627 01f8 002B     		cmp	r3, #0
 1628 01fa EFD0     		beq	.L98
 1629 01fc E3E7     		b	.L105
 1630              	.L107:
 1631 01fe 00BF     		.align	3
 1632              	.L106:
 1633 0200 00000000 		.word	0
 1634 0204 00606840 		.word	1080582144
 1635 0208 00000000 		.word	htim2
 1636 020c 00000000 		.word	htim16
 1637 0210 00040048 		.word	1207960576
 1638 0214 00080048 		.word	1207961600
 1639 0218 00440140 		.word	1073824768
 1640 021c 00000000 		.word	humInt
 1641 0220 00000000 		.word	humDec
 1642 0224 00000000 		.word	tempCInt
 1643 0228 00000000 		.word	tempCDec
 1644 022c 00002440 		.word	1076101120
 1645 0230 00000042 		.word	1107296256
 1646 0234 00000000 		.word	tempF
 1647 0238 00000000 		.word	settingTemp
 1648 023c 00000000 		.word	setTemp
 1649 0240 00000000 		.word	fanSpinning
 1650 0244 00001440 		.word	1075052544
 1651 0248 00804940 		.word	1078558720
 1652 024c 00000000 		.word	.LC0
 1653 0250 14000000 		.word	.LC1
 1654 0254 00000000 		.word	previousReadTime
 1655 0258 24000000 		.word	.LC2
 1656 025c 00000000 		.word	currentTimeInms
 1657              		.cfi_endproc
 1658              	.LFE957:
 1660              		.global	fanSpinning
 1661              		.section	.data.fanSpinning,"aw"
 1664              	fanSpinning:
 1665 0000 01       		.byte	1
 1666              		.global	settingTemp
 1667              		.section	.bss.settingTemp,"aw",%nobits
 1670              	settingTemp:
 1671 0000 00       		.space	1
 1672              		.global	setTemp
 1673              		.section	.data.setTemp,"aw"
 1676              	setTemp:
 1677 0000 46       		.byte	70
ARM GAS  C:\Users\Joshua\AppData\Local\Temp\cchJYxqO.s 			page 78


 1678              		.global	keyPressed
 1679              		.section	.bss.keyPressed,"aw",%nobits
 1682              	keyPressed:
 1683 0000 00       		.space	1
 1684              		.global	previousReadTime
 1685              		.section	.bss.previousReadTime,"aw",%nobits
 1686              		.align	2
 1689              	previousReadTime:
 1690 0000 00000000 		.space	4
 1691              		.global	currentTimeInms
 1692              		.section	.bss.currentTimeInms,"aw",%nobits
 1693              		.align	2
 1696              	currentTimeInms:
 1697 0000 00000000 		.space	4
 1698              		.global	previousTimeInms
 1699              		.section	.bss.previousTimeInms,"aw",%nobits
 1700              		.align	2
 1703              	previousTimeInms:
 1704 0000 00000000 		.space	4
 1705              		.global	tempF
 1706              		.section	.bss.tempF,"aw",%nobits
 1707              		.align	2
 1710              	tempF:
 1711 0000 00000000 		.space	4
 1712              		.global	tempCDec
 1713              		.section	.bss.tempCDec,"aw",%nobits
 1716              	tempCDec:
 1717 0000 00       		.space	1
 1718              		.global	tempCInt
 1719              		.section	.bss.tempCInt,"aw",%nobits
 1722              	tempCInt:
 1723 0000 00       		.space	1
 1724              		.global	humDec
 1725              		.section	.bss.humDec,"aw",%nobits
 1728              	humDec:
 1729 0000 00       		.space	1
 1730              		.global	humInt
 1731              		.section	.bss.humInt,"aw",%nobits
 1734              	humInt:
 1735 0000 00       		.space	1
 1736              		.global	myGPIO_InitStruct
 1737              		.section	.bss.myGPIO_InitStruct,"aw",%nobits
 1738              		.align	2
 1741              	myGPIO_InitStruct:
 1742 0000 00000000 		.space	20
 1742      00000000 
 1742      00000000 
 1742      00000000 
 1742      00000000 
 1743              		.global	cMillis
 1744              		.section	.bss.cMillis,"aw",%nobits
 1745              		.align	2
 1748              	cMillis:
 1749 0000 00000000 		.space	4
 1750              		.global	pMillis
 1751              		.section	.bss.pMillis,"aw",%nobits
 1752              		.align	2
ARM GAS  C:\Users\Joshua\AppData\Local\Temp\cchJYxqO.s 			page 79


 1755              	pMillis:
 1756 0000 00000000 		.space	4
 1757              		.text
 1758              	.Letext0:
 1759              		.file 4 "c:\\users\\joshua\\appdata\\roaming\\code\\user\\globalstorage\\bmd.stm32-for-vscode\\@xp
 1760              		.file 5 "c:\\users\\joshua\\appdata\\roaming\\code\\user\\globalstorage\\bmd.stm32-for-vscode\\@xp
 1761              		.file 6 "Drivers/CMSIS/Device/ST/STM32WBxx/Include/stm32wb55xx.h"
 1762              		.file 7 "Drivers/STM32WBxx_HAL_Driver/Inc/stm32wbxx_hal_def.h"
 1763              		.file 8 "Drivers/STM32WBxx_HAL_Driver/Inc/stm32wbxx_hal_dma.h"
 1764              		.file 9 "Drivers/STM32WBxx_HAL_Driver/Inc/stm32wbxx_hal_gpio.h"
 1765              		.file 10 "Drivers/STM32WBxx_HAL_Driver/Inc/stm32wbxx_hal_rcc.h"
 1766              		.file 11 "Drivers/STM32WBxx_HAL_Driver/Inc/stm32wbxx_hal_rcc_ex.h"
 1767              		.file 12 "Drivers/STM32WBxx_HAL_Driver/Inc/stm32wbxx_hal_tim.h"
 1768              		.file 13 "Core/Inc/tim.h"
 1769              		.file 14 "Drivers/STM32WBxx_HAL_Driver/Inc/stm32wbxx_hal_pwr.h"
 1770              		.file 15 "c:\\users\\joshua\\appdata\\roaming\\code\\user\\globalstorage\\bmd.stm32-for-vscode\\@x
 1771              		.file 16 "Core/Inc/lcd1602.h"
 1772              		.file 17 "Core/Inc/usb.h"
 1773              		.file 18 "Core/Inc/usart.h"
 1774              		.file 19 "Core/Inc/memorymap.h"
 1775              		.file 20 "Core/Inc/gpio.h"
 1776              		.file 21 "Drivers/STM32WBxx_HAL_Driver/Inc/stm32wbxx_hal.h"
 1777              		.file 22 "<built-in>"
ARM GAS  C:\Users\Joshua\AppData\Local\Temp\cchJYxqO.s 			page 80


DEFINED SYMBOLS
                            *ABS*:00000000 main.c
C:\Users\Joshua\AppData\Local\Temp\cchJYxqO.s:21     .text.WaitForLow:00000000 $t
C:\Users\Joshua\AppData\Local\Temp\cchJYxqO.s:27     .text.WaitForLow:00000000 WaitForLow
C:\Users\Joshua\AppData\Local\Temp\cchJYxqO.s:76     .text.WaitForLow:00000024 $d
C:\Users\Joshua\AppData\Local\Temp\cchJYxqO.s:81     .text.WaitForHigh:00000000 $t
C:\Users\Joshua\AppData\Local\Temp\cchJYxqO.s:87     .text.WaitForHigh:00000000 WaitForHigh
C:\Users\Joshua\AppData\Local\Temp\cchJYxqO.s:138    .text.WaitForHigh:00000028 $d
C:\Users\Joshua\AppData\Local\Temp\cchJYxqO.s:143    .text.DHT11_SendStartSignal:00000000 $t
C:\Users\Joshua\AppData\Local\Temp\cchJYxqO.s:149    .text.DHT11_SendStartSignal:00000000 DHT11_SendStartSignal
C:\Users\Joshua\AppData\Local\Temp\cchJYxqO.s:238    .text.DHT11_SendStartSignal:0000005c $d
C:\Users\Joshua\AppData\Local\Temp\cchJYxqO.s:243    .text.DHT11_ReadByte:00000000 $t
C:\Users\Joshua\AppData\Local\Temp\cchJYxqO.s:249    .text.DHT11_ReadByte:00000000 DHT11_ReadByte
C:\Users\Joshua\AppData\Local\Temp\cchJYxqO.s:335    .text.DHT11_ReadByte:0000004c $d
C:\Users\Joshua\AppData\Local\Temp\cchJYxqO.s:340    .text.NumButtonPress:00000000 $t
C:\Users\Joshua\AppData\Local\Temp\cchJYxqO.s:346    .text.NumButtonPress:00000000 NumButtonPress
C:\Users\Joshua\AppData\Local\Temp\cchJYxqO.s:391    .text.NumButtonPress:00000028 $d
C:\Users\Joshua\AppData\Local\Temp\cchJYxqO.s:1670   .bss.settingTemp:00000000 settingTemp
C:\Users\Joshua\AppData\Local\Temp\cchJYxqO.s:1676   .data.setTemp:00000000 setTemp
C:\Users\Joshua\AppData\Local\Temp\cchJYxqO.s:397    .text.HAL_GPIO_EXTI_Callback:00000000 $t
C:\Users\Joshua\AppData\Local\Temp\cchJYxqO.s:403    .text.HAL_GPIO_EXTI_Callback:00000000 HAL_GPIO_EXTI_Callback
C:\Users\Joshua\AppData\Local\Temp\cchJYxqO.s:931    .text.HAL_GPIO_EXTI_Callback:0000034c $d
C:\Users\Joshua\AppData\Local\Temp\cchJYxqO.s:1696   .bss.currentTimeInms:00000000 currentTimeInms
C:\Users\Joshua\AppData\Local\Temp\cchJYxqO.s:1703   .bss.previousTimeInms:00000000 previousTimeInms
C:\Users\Joshua\AppData\Local\Temp\cchJYxqO.s:1741   .bss.myGPIO_InitStruct:00000000 myGPIO_InitStruct
C:\Users\Joshua\AppData\Local\Temp\cchJYxqO.s:1682   .bss.keyPressed:00000000 keyPressed
C:\Users\Joshua\AppData\Local\Temp\cchJYxqO.s:937    .text.HAL_GPIO_EXTI_Callback:0000035c $t
C:\Users\Joshua\AppData\Local\Temp\cchJYxqO.s:978    .text.HAL_GPIO_EXTI_Callback:0000039c $d
C:\Users\Joshua\AppData\Local\Temp\cchJYxqO.s:985    .text.Error_Handler:00000000 $t
C:\Users\Joshua\AppData\Local\Temp\cchJYxqO.s:991    .text.Error_Handler:00000000 Error_Handler
C:\Users\Joshua\AppData\Local\Temp\cchJYxqO.s:1023   .text.SystemClock_Config:00000000 $t
C:\Users\Joshua\AppData\Local\Temp\cchJYxqO.s:1029   .text.SystemClock_Config:00000000 SystemClock_Config
C:\Users\Joshua\AppData\Local\Temp\cchJYxqO.s:1196   .text.SystemClock_Config:000000b8 $d
C:\Users\Joshua\AppData\Local\Temp\cchJYxqO.s:1201   .text.PeriphCommonClock_Config:00000000 $t
C:\Users\Joshua\AppData\Local\Temp\cchJYxqO.s:1207   .text.PeriphCommonClock_Config:00000000 PeriphCommonClock_Config
C:\Users\Joshua\AppData\Local\Temp\cchJYxqO.s:1261   .rodata.main.str1.4:00000000 $d
C:\Users\Joshua\AppData\Local\Temp\cchJYxqO.s:1272   .text.main:00000000 $t
C:\Users\Joshua\AppData\Local\Temp\cchJYxqO.s:1278   .text.main:00000000 main
C:\Users\Joshua\AppData\Local\Temp\cchJYxqO.s:1633   .text.main:00000200 $d
C:\Users\Joshua\AppData\Local\Temp\cchJYxqO.s:1734   .bss.humInt:00000000 humInt
C:\Users\Joshua\AppData\Local\Temp\cchJYxqO.s:1728   .bss.humDec:00000000 humDec
C:\Users\Joshua\AppData\Local\Temp\cchJYxqO.s:1722   .bss.tempCInt:00000000 tempCInt
C:\Users\Joshua\AppData\Local\Temp\cchJYxqO.s:1716   .bss.tempCDec:00000000 tempCDec
C:\Users\Joshua\AppData\Local\Temp\cchJYxqO.s:1710   .bss.tempF:00000000 tempF
C:\Users\Joshua\AppData\Local\Temp\cchJYxqO.s:1664   .data.fanSpinning:00000000 fanSpinning
C:\Users\Joshua\AppData\Local\Temp\cchJYxqO.s:1689   .bss.previousReadTime:00000000 previousReadTime
C:\Users\Joshua\AppData\Local\Temp\cchJYxqO.s:1671   .bss.settingTemp:00000000 $d
C:\Users\Joshua\AppData\Local\Temp\cchJYxqO.s:1683   .bss.keyPressed:00000000 $d
C:\Users\Joshua\AppData\Local\Temp\cchJYxqO.s:1686   .bss.previousReadTime:00000000 $d
C:\Users\Joshua\AppData\Local\Temp\cchJYxqO.s:1693   .bss.currentTimeInms:00000000 $d
C:\Users\Joshua\AppData\Local\Temp\cchJYxqO.s:1700   .bss.previousTimeInms:00000000 $d
C:\Users\Joshua\AppData\Local\Temp\cchJYxqO.s:1707   .bss.tempF:00000000 $d
C:\Users\Joshua\AppData\Local\Temp\cchJYxqO.s:1717   .bss.tempCDec:00000000 $d
C:\Users\Joshua\AppData\Local\Temp\cchJYxqO.s:1723   .bss.tempCInt:00000000 $d
C:\Users\Joshua\AppData\Local\Temp\cchJYxqO.s:1729   .bss.humDec:00000000 $d
C:\Users\Joshua\AppData\Local\Temp\cchJYxqO.s:1735   .bss.humInt:00000000 $d
C:\Users\Joshua\AppData\Local\Temp\cchJYxqO.s:1738   .bss.myGPIO_InitStruct:00000000 $d
ARM GAS  C:\Users\Joshua\AppData\Local\Temp\cchJYxqO.s 			page 81


C:\Users\Joshua\AppData\Local\Temp\cchJYxqO.s:1748   .bss.cMillis:00000000 cMillis
C:\Users\Joshua\AppData\Local\Temp\cchJYxqO.s:1745   .bss.cMillis:00000000 $d
C:\Users\Joshua\AppData\Local\Temp\cchJYxqO.s:1755   .bss.pMillis:00000000 pMillis
C:\Users\Joshua\AppData\Local\Temp\cchJYxqO.s:1752   .bss.pMillis:00000000 $d

UNDEFINED SYMBOLS
HAL_GetTick
HAL_GPIO_ReadPin
HAL_GPIO_Init
HAL_GPIO_WritePin
HAL_Delay
Delay_us
memset
HAL_PWR_EnableBkUpAccess
HAL_RCC_OscConfig
HAL_RCC_ClockConfig
HAL_RCCEx_EnableMSIPLLMode
HAL_RCCEx_PeriphCLKConfig
__aeabi_i2d
__aeabi_ddiv
__aeabi_d2f
__aeabi_f2d
__aeabi_dsub
__aeabi_dmul
__aeabi_dadd
__aeabi_d2uiz
__aeabi_d2iz
HAL_Init
MX_GPIO_Init
MX_MEMORYMAP_Init
MX_TIM16_Init
MX_USART1_UART_Init
MX_USB_PCD_Init
MX_TIM2_Init
HAL_TIM_Base_Start
HAL_TIM_PWM_Start
LCD_Init
LCD_Cls
LCD_GotoXY
round
sprintf
LCD_Print
htim2
htim16
